
Tarf_ar0330_stereo_camera.ko:     file format elf64-littleaarch64


Disassembly of section .text:

0000000000000000 <ar0330_read_8b_reg>:
       0:	a9bb7bfd 	stp	x29, x30, [sp, #-80]!
       4:	910003fd 	mov	x29, sp
       8:	a90153f3 	stp	x19, x20, [sp, #16]
       c:	aa0203f4 	mov	x20, x2
      10:	a9025bf5 	stp	x21, x22, [sp, #32]
      14:	12003c35 	and	w21, w1, #0xffff
      18:	a90363f7 	stp	x23, x24, [sp, #48]
      1c:	52800017 	mov	w23, #0x0                   	// #0
      20:	f90023f9 	str	x25, [sp, #64]
      24:	580003b8 	ldr	x24, 98 <ar0330_read_8b_reg+0x98>
      28:	58000359 	ldr	x25, 90 <ar0330_read_8b_reg+0x90>
      2c:	f9410016 	ldr	x22, [x0, #512]
      30:	f9400ac0 	ldr	x0, [x22, #16]
      34:	aa1403e2 	mov	x2, x20
      38:	2a1503e1 	mov	w1, w21
      3c:	94000000 	bl	0 <regmap_read>
      40:	2a0003f3 	mov	w19, w0
      44:	35000100 	cbnz	w0, 64 <ar0330_read_8b_reg+0x64>
      48:	2a1303e0 	mov	w0, w19
      4c:	f94023f9 	ldr	x25, [sp, #64]
      50:	a94153f3 	ldp	x19, x20, [sp, #16]
      54:	a9425bf5 	ldp	x21, x22, [sp, #32]
      58:	a94363f7 	ldp	x23, x24, [sp, #48]
      5c:	a8c57bfd 	ldp	x29, x30, [sp], #80
      60:	d65f03c0 	ret
      64:	39400283 	ldrb	w3, [x20]
      68:	110006f7 	add	w23, w23, #0x1
      6c:	2a1703e4 	mov	w4, w23
      70:	2a1503e2 	mov	w2, w21
      74:	aa1903e1 	mov	x1, x25
      78:	aa1803e0 	mov	x0, x24
      7c:	94000000 	bl	0 <printk>
      80:	71002eff 	cmp	w23, #0xb
      84:	54fffd61 	b.ne	30 <ar0330_read_8b_reg+0x30>  // b.any
      88:	17fffff0 	b	48 <ar0330_read_8b_reg+0x48>
      8c:	d503201f 	nop
	...

00000000000000a0 <ar0330_g_volatile_ctrl>:
      a0:	a9be7bfd 	stp	x29, x30, [sp, #-32]!
      a4:	910003fd 	mov	x29, sp
      a8:	a90153f3 	stp	x19, x20, [sp, #16]
      ac:	aa0003f3 	mov	x19, x0
      b0:	aa1e03e0 	mov	x0, x30
      b4:	94000000 	bl	0 <_mcount>
      b8:	58000e00 	ldr	x0, 278 <ar0330_g_volatile_ctrl+0x1d8>
      bc:	f9401274 	ldr	x20, [x19, #32]
      c0:	94000000 	bl	0 <printk>
      c4:	385f4280 	ldurb	w0, [x20, #-12]
      c8:	340003a0 	cbz	w0, 13c <ar0330_g_volatile_ctrl+0x9c>
      cc:	b9404a60 	ldr	w0, [x19, #72]
      d0:	52812261 	mov	w1, #0x913                 	// #2323
      d4:	72a01301 	movk	w1, #0x98, lsl #16
      d8:	6b01001f 	cmp	w0, w1
      dc:	540008c0 	b.eq	1f4 <ar0330_g_volatile_ctrl+0x154>  // b.none
      e0:	54000369 	b.ls	14c <ar0330_g_volatile_ctrl+0xac>  // b.plast
      e4:	52812341 	mov	w1, #0x91a                 	// #2330
      e8:	72a01301 	movk	w1, #0x98, lsl #16
      ec:	6b01001f 	cmp	w0, w1
      f0:	54000aa0 	b.eq	244 <ar0330_g_volatile_ctrl+0x1a4>  // b.none
      f4:	540004c9 	b.ls	18c <ar0330_g_volatile_ctrl+0xec>  // b.plast
      f8:	52812021 	mov	w1, #0x901                 	// #2305
      fc:	72a01341 	movk	w1, #0x9a, lsl #16
     100:	6b01001f 	cmp	w0, w1
     104:	54000b00 	b.eq	264 <ar0330_g_volatile_ctrl+0x1c4>  // b.none
     108:	11000421 	add	w1, w1, #0x1
     10c:	6b01001f 	cmp	w0, w1
     110:	540008a0 	b.eq	224 <ar0330_g_volatile_ctrl+0x184>  // b.none
     114:	52812361 	mov	w1, #0x91b                 	// #2331
     118:	72a01301 	movk	w1, #0x98, lsl #16
     11c:	6b01001f 	cmp	w0, w1
     120:	540009a0 	b.eq	254 <ar0330_g_volatile_ctrl+0x1b4>  // b.none
     124:	58000b20 	ldr	x0, 288 <ar0330_g_volatile_ctrl+0x1e8>
     128:	58000ac1 	ldr	x1, 280 <ar0330_g_volatile_ctrl+0x1e0>
     12c:	91006021 	add	x1, x1, #0x18
     130:	94000000 	bl	0 <printk>
     134:	128002a0 	mov	w0, #0xffffffea            	// #-22
     138:	14000002 	b	140 <ar0330_g_volatile_ctrl+0xa0>
     13c:	52800000 	mov	w0, #0x0                   	// #0
     140:	a94153f3 	ldp	x19, x20, [sp, #16]
     144:	a8c27bfd 	ldp	x29, x30, [sp], #32
     148:	d65f03c0 	ret
     14c:	52812041 	mov	w1, #0x902                 	// #2306
     150:	72a01301 	movk	w1, #0x98, lsl #16
     154:	6b01001f 	cmp	w0, w1
     158:	54000560 	b.eq	204 <ar0330_g_volatile_ctrl+0x164>  // b.none
     15c:	540002e8 	b.hi	1b8 <ar0330_g_volatile_ctrl+0x118>  // b.pmore
     160:	52812001 	mov	w1, #0x900                 	// #2304
     164:	72a01301 	movk	w1, #0x98, lsl #16
     168:	6b01001f 	cmp	w0, w1
     16c:	54000640 	b.eq	234 <ar0330_g_volatile_ctrl+0x194>  // b.none
     170:	11000421 	add	w1, w1, #0x1
     174:	6b01001f 	cmp	w0, w1
     178:	54fffd61 	b.ne	124 <ar0330_g_volatile_ctrl+0x84>  // b.any
     17c:	b8554281 	ldur	w1, [x20, #-172]
     180:	52800000 	mov	w0, #0x0                   	// #0
     184:	b900ba61 	str	w1, [x19, #184]
     188:	17ffffee 	b	140 <ar0330_g_volatile_ctrl+0xa0>
     18c:	52812281 	mov	w1, #0x914                 	// #2324
     190:	72a01301 	movk	w1, #0x98, lsl #16
     194:	6b01001f 	cmp	w0, w1
     198:	540003e0 	b.eq	214 <ar0330_g_volatile_ctrl+0x174>  // b.none
     19c:	11000421 	add	w1, w1, #0x1
     1a0:	6b01001f 	cmp	w0, w1
     1a4:	54fffc01 	b.ne	124 <ar0330_g_volatile_ctrl+0x84>  // b.any
     1a8:	b8570281 	ldur	w1, [x20, #-144]
     1ac:	52800000 	mov	w0, #0x0                   	// #0
     1b0:	b900ba61 	str	w1, [x19, #184]
     1b4:	17ffffe3 	b	140 <ar0330_g_volatile_ctrl+0xa0>
     1b8:	52812181 	mov	w1, #0x90c                 	// #2316
     1bc:	72a01301 	movk	w1, #0x98, lsl #16
     1c0:	6b01001f 	cmp	w0, w1
     1c4:	54000100 	b.eq	1e4 <ar0330_g_volatile_ctrl+0x144>  // b.none
     1c8:	11001021 	add	w1, w1, #0x4
     1cc:	6b01001f 	cmp	w0, w1
     1d0:	54fffaa1 	b.ne	124 <ar0330_g_volatile_ctrl+0x84>  // b.any
     1d4:	b8564281 	ldur	w1, [x20, #-156]
     1d8:	52800000 	mov	w0, #0x0                   	// #0
     1dc:	b900ba61 	str	w1, [x19, #184]
     1e0:	17ffffd8 	b	140 <ar0330_g_volatile_ctrl+0xa0>
     1e4:	b8568281 	ldur	w1, [x20, #-152]
     1e8:	52800000 	mov	w0, #0x0                   	// #0
     1ec:	b900ba61 	str	w1, [x19, #184]
     1f0:	17ffffd4 	b	140 <ar0330_g_volatile_ctrl+0xa0>
     1f4:	b8560281 	ldur	w1, [x20, #-160]
     1f8:	52800000 	mov	w0, #0x0                   	// #0
     1fc:	b900ba61 	str	w1, [x19, #184]
     200:	17ffffd0 	b	140 <ar0330_g_volatile_ctrl+0xa0>
     204:	b8558281 	ldur	w1, [x20, #-168]
     208:	52800000 	mov	w0, #0x0                   	// #0
     20c:	b900ba61 	str	w1, [x19, #184]
     210:	17ffffcc 	b	140 <ar0330_g_volatile_ctrl+0xa0>
     214:	b8574281 	ldur	w1, [x20, #-140]
     218:	52800000 	mov	w0, #0x0                   	// #0
     21c:	b900ba61 	str	w1, [x19, #184]
     220:	17ffffc8 	b	140 <ar0330_g_volatile_ctrl+0xa0>
     224:	b857c281 	ldur	w1, [x20, #-132]
     228:	52800000 	mov	w0, #0x0                   	// #0
     22c:	b900ba61 	str	w1, [x19, #184]
     230:	17ffffc4 	b	140 <ar0330_g_volatile_ctrl+0xa0>
     234:	b8550281 	ldur	w1, [x20, #-176]
     238:	52800000 	mov	w0, #0x0                   	// #0
     23c:	b900ba61 	str	w1, [x19, #184]
     240:	17ffffc0 	b	140 <ar0330_g_volatile_ctrl+0xa0>
     244:	b856c281 	ldur	w1, [x20, #-148]
     248:	52800000 	mov	w0, #0x0                   	// #0
     24c:	b900ba61 	str	w1, [x19, #184]
     250:	17ffffbc 	b	140 <ar0330_g_volatile_ctrl+0xa0>
     254:	b855c281 	ldur	w1, [x20, #-164]
     258:	52800000 	mov	w0, #0x0                   	// #0
     25c:	b900ba61 	str	w1, [x19, #184]
     260:	17ffffb8 	b	140 <ar0330_g_volatile_ctrl+0xa0>
     264:	b8578281 	ldur	w1, [x20, #-136]
     268:	52800000 	mov	w0, #0x0                   	// #0
     26c:	b900ba61 	str	w1, [x19, #184]
     270:	17ffffb4 	b	140 <ar0330_g_volatile_ctrl+0xa0>
     274:	d503201f 	nop
	...

0000000000000290 <ar0330_open>:
     290:	a9be7bfd 	stp	x29, x30, [sp, #-32]!
     294:	910003fd 	mov	x29, sp
     298:	f9000bf3 	str	x19, [sp, #16]
     29c:	aa0003f3 	mov	x19, x0
     2a0:	aa1e03e0 	mov	x0, x30
     2a4:	94000000 	bl	0 <_mcount>
     2a8:	d503201f 	nop
     2ac:	52800000 	mov	w0, #0x0                   	// #0
     2b0:	f9400bf3 	ldr	x19, [sp, #16]
     2b4:	a8c27bfd 	ldp	x29, x30, [sp], #32
     2b8:	d65f03c0 	ret
     2bc:	580001a2 	ldr	x2, 2f0 <ar0330_open+0x60>
     2c0:	580001c0 	ldr	x0, 2f8 <ar0330_open+0x68>
     2c4:	f9407661 	ldr	x1, [x19, #232]
     2c8:	58000103 	ldr	x3, 2e8 <ar0330_open+0x58>
     2cc:	91008021 	add	x1, x1, #0x20
     2d0:	9100c063 	add	x3, x3, #0x30
     2d4:	94000000 	bl	0 <__dynamic_dev_dbg>
     2d8:	52800000 	mov	w0, #0x0                   	// #0
     2dc:	f9400bf3 	ldr	x19, [sp, #16]
     2e0:	a8c27bfd 	ldp	x29, x30, [sp], #32
     2e4:	d65f03c0 	ret
	...

0000000000000300 <ar0330_g_parm>:
     300:	a9be7bfd 	stp	x29, x30, [sp, #-32]!
     304:	910003fd 	mov	x29, sp
     308:	a90153f3 	stp	x19, x20, [sp, #16]
     30c:	aa0003f4 	mov	x20, x0
     310:	aa0103f3 	mov	x19, x1
     314:	aa1e03e0 	mov	x0, x30
     318:	94000000 	bl	0 <_mcount>
     31c:	f9407694 	ldr	x20, [x20, #232]
     320:	91008294 	add	x20, x20, #0x20
     324:	aa1403e0 	mov	x0, x20
     328:	94000000 	bl	0 <sensor_common_parse_num_modes>
     32c:	d2800001 	mov	x1, #0x0                   	// #0
     330:	34000060 	cbz	w0, 33c <ar0330_g_parm+0x3c>
     334:	f9405281 	ldr	x1, [x20, #160]
     338:	d100e021 	sub	x1, x1, #0x38
     33c:	f9410022 	ldr	x2, [x1, #512]
     340:	b4000222 	cbz	x2, 384 <ar0330_g_parm+0x84>
     344:	f940ac40 	ldr	x0, [x2, #344]
     348:	b40001e0 	cbz	x0, 384 <ar0330_g_parm+0x84>
     34c:	b9400663 	ldr	w3, [x19, #4]
     350:	52800024 	mov	w4, #0x1                   	// #1
     354:	580001e5 	ldr	x5, 390 <ar0330_g_parm+0x90>
     358:	52800000 	mov	w0, #0x0                   	// #0
     35c:	32140063 	orr	w3, w3, #0x1000
     360:	b9000663 	str	w3, [x19, #4]
     364:	29410841 	ldp	w1, w2, [x2, #8]
     368:	8b0114a1 	add	x1, x5, x1, lsl #5
     36c:	f9402421 	ldr	x1, [x1, #72]
     370:	b8627821 	ldr	w1, [x1, x2, lsl #2]
     374:	29018664 	stp	w4, w1, [x19, #12]
     378:	a94153f3 	ldp	x19, x20, [sp, #16]
     37c:	a8c27bfd 	ldp	x29, x30, [sp], #32
     380:	d65f03c0 	ret
     384:	128002a0 	mov	w0, #0xffffffea            	// #-22
     388:	17fffffc 	b	378 <ar0330_g_parm+0x78>
     38c:	d503201f 	nop
	...

0000000000000398 <ar0330_g_input_status>:
     398:	a9be7bfd 	stp	x29, x30, [sp, #-32]!
     39c:	910003fd 	mov	x29, sp
     3a0:	a90153f3 	stp	x19, x20, [sp, #16]
     3a4:	aa0003f3 	mov	x19, x0
     3a8:	aa0103f4 	mov	x20, x1
     3ac:	aa1e03e0 	mov	x0, x30
     3b0:	94000000 	bl	0 <_mcount>
     3b4:	f9407673 	ldr	x19, [x19, #232]
     3b8:	91008273 	add	x19, x19, #0x20
     3bc:	aa1303e0 	mov	x0, x19
     3c0:	94000000 	bl	0 <sensor_common_parse_num_modes>
     3c4:	d2800002 	mov	x2, #0x0                   	// #0
     3c8:	34000060 	cbz	w0, 3d4 <ar0330_g_input_status+0x3c>
     3cc:	f9405262 	ldr	x2, [x19, #160]
     3d0:	d100e042 	sub	x2, x2, #0x38
     3d4:	f9410041 	ldr	x1, [x2, #512]
     3d8:	52800000 	mov	w0, #0x0                   	// #0
     3dc:	39433021 	ldrb	w1, [x1, #204]
     3e0:	b9000281 	str	w1, [x20]
     3e4:	a94153f3 	ldp	x19, x20, [sp, #16]
     3e8:	a8c27bfd 	ldp	x29, x30, [sp], #32
     3ec:	d65f03c0 	ret

00000000000003f0 <ar0330_remove>:
     3f0:	a9bd7bfd 	stp	x29, x30, [sp, #-48]!
     3f4:	910003fd 	mov	x29, sp
     3f8:	a90153f3 	stp	x19, x20, [sp, #16]
     3fc:	f90013f5 	str	x21, [sp, #32]
     400:	aa0003f3 	mov	x19, x0
     404:	aa1e03e0 	mov	x0, x30
     408:	91008273 	add	x19, x19, #0x20
     40c:	94000000 	bl	0 <_mcount>
     410:	aa1303e0 	mov	x0, x19
     414:	d2800015 	mov	x21, #0x0                   	// #0
     418:	94000000 	bl	0 <sensor_common_parse_num_modes>
     41c:	34000060 	cbz	w0, 428 <ar0330_remove+0x38>
     420:	f9405275 	ldr	x21, [x19, #160]
     424:	d100e2b5 	sub	x21, x21, #0x38
     428:	f94102b4 	ldr	x20, [x21, #512]
     42c:	f9402e80 	ldr	x0, [x20, #88]
     430:	94000000 	bl	0 <v4l2_async_unregister_subdev>
     434:	91036280 	add	x0, x20, #0xd8
     438:	94000000 	bl	0 <v4l2_ctrl_handler_free>
     43c:	b1026293 	adds	x19, x20, #0x98
     440:	54000200 	b.eq	480 <ar0330_remove+0x90>  // b.none
     444:	f9400660 	ldr	x0, [x19, #8]
     448:	b4000040 	cbz	x0, 450 <ar0330_remove+0x60>
     44c:	94000000 	bl	0 <regulator_put>
     450:	f9400a60 	ldr	x0, [x19, #16]
     454:	b4000040 	cbz	x0, 45c <ar0330_remove+0x6c>
     458:	94000000 	bl	0 <regulator_put>
     45c:	a900fe7f 	stp	xzr, xzr, [x19, #8]
     460:	b9402a60 	ldr	w0, [x19, #40]
     464:	f940ae82 	ldr	x2, [x20, #344]
     468:	b4000062 	cbz	x2, 474 <ar0330_remove+0x84>
     46c:	39414041 	ldrb	w1, [x2, #80]
     470:	35000161 	cbnz	w1, 49c <ar0330_remove+0xac>
     474:	94000000 	bl	0 <gpio_free>
     478:	b9402e60 	ldr	w0, [x19, #44]
     47c:	94000000 	bl	0 <gpio_free>
     480:	aa1503e0 	mov	x0, x21
     484:	94000000 	bl	0 <camera_common_remove_debugfs>
     488:	52800000 	mov	w0, #0x0                   	// #0
     48c:	f94013f5 	ldr	x21, [sp, #32]
     490:	a94153f3 	ldp	x19, x20, [sp, #16]
     494:	a8c37bfd 	ldp	x29, x30, [sp], #48
     498:	d65f03c0 	ret
     49c:	f940aa82 	ldr	x2, [x20, #336]
     4a0:	2a0003e1 	mov	w1, w0
     4a4:	91008040 	add	x0, x2, #0x20
     4a8:	94000000 	bl	0 <cam_gpio_deregister>
     4ac:	aa1503e0 	mov	x0, x21
     4b0:	94000000 	bl	0 <camera_common_remove_debugfs>
     4b4:	52800000 	mov	w0, #0x0                   	// #0
     4b8:	f94013f5 	ldr	x21, [sp, #32]
     4bc:	a94153f3 	ldp	x19, x20, [sp, #16]
     4c0:	a8c37bfd 	ldp	x29, x30, [sp], #48
     4c4:	d65f03c0 	ret

00000000000004c8 <ar0330_set_fmt>:
     4c8:	a9bd7bfd 	stp	x29, x30, [sp, #-48]!
     4cc:	910003fd 	mov	x29, sp
     4d0:	a90153f3 	stp	x19, x20, [sp, #16]
     4d4:	f90013f5 	str	x21, [sp, #32]
     4d8:	aa0003f4 	mov	x20, x0
     4dc:	aa0203f5 	mov	x21, x2
     4e0:	aa1e03e0 	mov	x0, x30
     4e4:	94000000 	bl	0 <_mcount>
     4e8:	f9407693 	ldr	x19, [x20, #232]
     4ec:	91008273 	add	x19, x19, #0x20
     4f0:	aa1303e0 	mov	x0, x19
     4f4:	94000000 	bl	0 <sensor_common_parse_num_modes>
     4f8:	d2800001 	mov	x1, #0x0                   	// #0
     4fc:	34000060 	cbz	w0, 508 <ar0330_set_fmt+0x40>
     500:	f9405261 	ldr	x1, [x19, #160]
     504:	d100e021 	sub	x1, x1, #0x38
     508:	f9410023 	ldr	x3, [x1, #512]
     50c:	b40000e3 	cbz	x3, 528 <ar0330_set_fmt+0x60>
     510:	f940ac60 	ldr	x0, [x3, #344]
     514:	b40000a0 	cbz	x0, 528 <ar0330_set_fmt+0x60>
     518:	b94012a2 	ldr	w2, [x21, #16]
     51c:	528401e0 	mov	w0, #0x200f                	// #8207
     520:	6b00005f 	cmp	w2, w0
     524:	540000e0 	b.eq	540 <ar0330_set_fmt+0x78>  // b.none
     528:	128002b3 	mov	w19, #0xffffffea            	// #-22
     52c:	2a1303e0 	mov	w0, w19
     530:	f94013f5 	ldr	x21, [sp, #32]
     534:	a94153f3 	ldp	x19, x20, [sp, #16]
     538:	a8c37bfd 	ldp	x29, x30, [sp], #48
     53c:	d65f03c0 	ret
     540:	f90017b6 	str	x22, [x29, #40]
     544:	528b2aa0 	mov	w0, #0x5955                	// #22869
     548:	72ab2ac0 	movk	w0, #0x5956, lsl #16
     54c:	b9000460 	str	w0, [x3, #4]
     550:	b9421c20 	ldr	w0, [x1, #540]
     554:	7100001f 	cmp	w0, #0x0
     558:	5400008d 	b.le	568 <ar0330_set_fmt+0xa0>
     55c:	b9400aa0 	ldr	w0, [x21, #8]
     560:	7124001f 	cmp	w0, #0x900
     564:	540001a0 	b.eq	598 <ar0330_set_fmt+0xd0>  // b.none
     568:	58000356 	ldr	x22, 5d0 <ar0330_set_fmt+0x108>
     56c:	b94002a0 	ldr	w0, [x21]
     570:	910022a1 	add	x1, x21, #0x8
     574:	35000260 	cbnz	w0, 5c0 <ar0330_set_fmt+0xf8>
     578:	aa1403e0 	mov	x0, x20
     57c:	94000000 	bl	0 <camera_common_try_fmt>
     580:	2a0003f3 	mov	w19, w0
     584:	580002e0 	ldr	x0, 5e0 <ar0330_set_fmt+0x118>
     588:	910182c1 	add	x1, x22, #0x60
     58c:	94000000 	bl	0 <printk>
     590:	f94017b6 	ldr	x22, [x29, #40]
     594:	17ffffe6 	b	52c <ar0330_set_fmt+0x64>
     598:	b9400ea0 	ldr	w0, [x21, #12]
     59c:	580001b6 	ldr	x22, 5d0 <ar0330_set_fmt+0x108>
     5a0:	7118001f 	cmp	w0, #0x600
     5a4:	54fffe41 	b.ne	56c <ar0330_set_fmt+0xa4>  // b.any
     5a8:	58000180 	ldr	x0, 5d8 <ar0330_set_fmt+0x110>
     5ac:	52800022 	mov	w2, #0x1                   	// #1
     5b0:	b9000862 	str	w2, [x3, #8]
     5b4:	910182c1 	add	x1, x22, #0x60
     5b8:	94000000 	bl	0 <printk>
     5bc:	17ffffec 	b	56c <ar0330_set_fmt+0xa4>
     5c0:	aa1403e0 	mov	x0, x20
     5c4:	94000000 	bl	0 <camera_common_s_fmt>
     5c8:	2a0003f3 	mov	w19, w0
     5cc:	17ffffee 	b	584 <ar0330_set_fmt+0xbc>
	...

00000000000005e8 <ar0330_get_fmt>:
     5e8:	a9be7bfd 	stp	x29, x30, [sp, #-32]!
     5ec:	910003fd 	mov	x29, sp
     5f0:	a90153f3 	stp	x19, x20, [sp, #16]
     5f4:	aa0203f4 	mov	x20, x2
     5f8:	aa0003f3 	mov	x19, x0
     5fc:	aa1e03e0 	mov	x0, x30
     600:	94000000 	bl	0 <_mcount>
     604:	91002281 	add	x1, x20, #0x8
     608:	aa1303e0 	mov	x0, x19
     60c:	94000000 	bl	0 <camera_common_g_fmt>
     610:	a94153f3 	ldp	x19, x20, [sp, #16]
     614:	a8c27bfd 	ldp	x29, x30, [sp], #32
     618:	d65f03c0 	ret
     61c:	d503201f 	nop

0000000000000620 <ar0330_s_parm>:
     620:	a9bc7bfd 	stp	x29, x30, [sp, #-64]!
     624:	910003fd 	mov	x29, sp
     628:	a90153f3 	stp	x19, x20, [sp, #16]
     62c:	a9025bf5 	stp	x21, x22, [sp, #32]
     630:	aa0003f3 	mov	x19, x0
     634:	aa0103f6 	mov	x22, x1
     638:	aa1e03e0 	mov	x0, x30
     63c:	94000000 	bl	0 <_mcount>
     640:	f9407675 	ldr	x21, [x19, #232]
     644:	910082b5 	add	x21, x21, #0x20
     648:	aa1503e0 	mov	x0, x21
     64c:	94000000 	bl	0 <sensor_common_parse_num_modes>
     650:	d2800002 	mov	x2, #0x0                   	// #0
     654:	34000060 	cbz	w0, 660 <ar0330_s_parm+0x40>
     658:	f94052a2 	ldr	x2, [x21, #160]
     65c:	d100e042 	sub	x2, x2, #0x38
     660:	f9410054 	ldr	x20, [x2, #512]
     664:	b40006b4 	cbz	x20, 738 <ar0330_s_parm+0x118>
     668:	f940ae80 	ldr	x0, [x20, #344]
     66c:	b4000660 	cbz	x0, 738 <ar0330_s_parm+0x118>
     670:	f9001bb7 	str	x23, [x29, #48]
     674:	58000737 	ldr	x23, 758 <ar0330_s_parm+0x138>
     678:	b9400a80 	ldr	w0, [x20, #8]
     67c:	910102e2 	add	x2, x23, #0x40
     680:	b94012c1 	ldr	w1, [x22, #16]
     684:	8b001440 	add	x0, x2, x0, lsl #5
     688:	b9401003 	ldr	w3, [x0, #16]
     68c:	7100007f 	cmp	w3, #0x0
     690:	5400058d 	b.le	740 <ar0330_s_parm+0x120>
     694:	f9400400 	ldr	x0, [x0, #8]
     698:	52800013 	mov	w19, #0x0                   	// #0
     69c:	91001000 	add	x0, x0, #0x4
     6a0:	b85fc002 	ldur	w2, [x0, #-4]
     6a4:	6b02003f 	cmp	w1, w2
     6a8:	54000440 	b.eq	730 <ar0330_s_parm+0x110>  // b.none
     6ac:	d503201f 	nop
     6b0:	11000673 	add	w19, w19, #0x1
     6b4:	6b03027f 	cmp	w19, w3
     6b8:	54000440 	b.eq	740 <ar0330_s_parm+0x120>  // b.none
     6bc:	b8404402 	ldr	w2, [x0], #4
     6c0:	6b01005f 	cmp	w2, w1
     6c4:	54ffff61 	b.ne	6b0 <ar0330_s_parm+0x90>  // b.any
     6c8:	580004c1 	ldr	x1, 760 <ar0330_s_parm+0x140>
     6cc:	52800025 	mov	w5, #0x1                   	// #1
     6d0:	f9400a80 	ldr	x0, [x20, #16]
     6d4:	52800004 	mov	w4, #0x0                   	// #0
     6d8:	52800003 	mov	w3, #0x0                   	// #0
     6dc:	d2800002 	mov	x2, #0x0                   	// #0
     6e0:	94000000 	bl	0 <regmap_util_write_table_16_as_8>
     6e4:	2a0003f6 	mov	w22, w0
     6e8:	35000100 	cbnz	w0, 708 <ar0330_s_parm+0xe8>
     6ec:	b9000e93 	str	w19, [x20, #12]
     6f0:	f9401bb7 	ldr	x23, [x29, #48]
     6f4:	2a1603e0 	mov	w0, w22
     6f8:	a94153f3 	ldp	x19, x20, [sp, #16]
     6fc:	a9425bf5 	ldp	x21, x22, [sp, #32]
     700:	a8c47bfd 	ldp	x29, x30, [sp], #64
     704:	d65f03c0 	ret
     708:	58000301 	ldr	x1, 768 <ar0330_s_parm+0x148>
     70c:	9101c2e2 	add	x2, x23, #0x70
     710:	aa1503e0 	mov	x0, x21
     714:	94000000 	bl	0 <dev_err>
     718:	f9401bb7 	ldr	x23, [x29, #48]
     71c:	2a1603e0 	mov	w0, w22
     720:	a94153f3 	ldp	x19, x20, [sp, #16]
     724:	a9425bf5 	ldp	x21, x22, [sp, #32]
     728:	a8c47bfd 	ldp	x29, x30, [sp], #64
     72c:	d65f03c0 	ret
     730:	52800013 	mov	w19, #0x0                   	// #0
     734:	17ffffe5 	b	6c8 <ar0330_s_parm+0xa8>
     738:	128002b6 	mov	w22, #0xffffffea            	// #-22
     73c:	17ffffee 	b	6f4 <ar0330_s_parm+0xd4>
     740:	58000180 	ldr	x0, 770 <ar0330_s_parm+0x150>
     744:	128002b6 	mov	w22, #0xffffffea            	// #-22
     748:	94000000 	bl	0 <printk>
     74c:	f9401bb7 	ldr	x23, [x29, #48]
     750:	17ffffe9 	b	6f4 <ar0330_s_parm+0xd4>
     754:	d503201f 	nop
	...

0000000000000778 <ar0330_s_stream>:
     778:	a9bd7bfd 	stp	x29, x30, [sp, #-48]!
     77c:	910003fd 	mov	x29, sp
     780:	a90153f3 	stp	x19, x20, [sp, #16]
     784:	f90013f5 	str	x21, [sp, #32]
     788:	aa0003f3 	mov	x19, x0
     78c:	2a0103f4 	mov	w20, w1
     790:	aa1e03e0 	mov	x0, x30
     794:	94000000 	bl	0 <_mcount>
     798:	f9407673 	ldr	x19, [x19, #232]
     79c:	91008273 	add	x19, x19, #0x20
     7a0:	aa1303e0 	mov	x0, x19
     7a4:	94000000 	bl	0 <sensor_common_parse_num_modes>
     7a8:	d2800001 	mov	x1, #0x0                   	// #0
     7ac:	34000060 	cbz	w0, 7b8 <ar0330_s_stream+0x40>
     7b0:	f9405261 	ldr	x1, [x19, #160]
     7b4:	d100e021 	sub	x1, x1, #0x38
     7b8:	f9410035 	ldr	x21, [x1, #512]
     7bc:	d503201f 	nop
     7c0:	58000500 	ldr	x0, 860 <ar0330_s_stream+0xe8>
     7c4:	2a1403e1 	mov	w1, w20
     7c8:	94000000 	bl	0 <printk>
     7cc:	35000294 	cbnz	w20, 81c <ar0330_s_stream+0xa4>
     7d0:	580004c1 	ldr	x1, 868 <ar0330_s_stream+0xf0>
     7d4:	52800025 	mov	w5, #0x1                   	// #1
     7d8:	f9400aa0 	ldr	x0, [x21, #16]
     7dc:	52800004 	mov	w4, #0x0                   	// #0
     7e0:	52800003 	mov	w3, #0x0                   	// #0
     7e4:	d2800002 	mov	x2, #0x0                   	// #0
     7e8:	94000000 	bl	0 <regmap_util_write_table_16_as_8>
     7ec:	a94153f3 	ldp	x19, x20, [sp, #16]
     7f0:	f94013f5 	ldr	x21, [sp, #32]
     7f4:	a8c37bfd 	ldp	x29, x30, [sp], #48
     7f8:	d65f03c0 	ret
     7fc:	580002a2 	ldr	x2, 850 <ar0330_s_stream+0xd8>
     800:	aa1303e1 	mov	x1, x19
     804:	58000223 	ldr	x3, 848 <ar0330_s_stream+0xd0>
     808:	58000280 	ldr	x0, 858 <ar0330_s_stream+0xe0>
     80c:	91020063 	add	x3, x3, #0x80
     810:	91010000 	add	x0, x0, #0x40
     814:	94000000 	bl	0 <__dynamic_dev_dbg>
     818:	17ffffea 	b	7c0 <ar0330_s_stream+0x48>
     81c:	580002a0 	ldr	x0, 870 <ar0330_s_stream+0xf8>
     820:	94000000 	bl	0 <printk>
     824:	f9400aa0 	ldr	x0, [x21, #16]
     828:	52800025 	mov	w5, #0x1                   	// #1
     82c:	580001e1 	ldr	x1, 868 <ar0330_s_stream+0xf0>
     830:	52800004 	mov	w4, #0x0                   	// #0
     834:	52800003 	mov	w3, #0x0                   	// #0
     838:	d2800002 	mov	x2, #0x0                   	// #0
     83c:	91002021 	add	x1, x1, #0x8
     840:	94000000 	bl	0 <regmap_util_write_table_16_as_8>
     844:	17ffffea 	b	7ec <ar0330_s_stream+0x74>
	...

0000000000000878 <ar0330_write_8b_reg>:
     878:	a9bb7bfd 	stp	x29, x30, [sp, #-80]!
     87c:	910003fd 	mov	x29, sp
     880:	a90153f3 	stp	x19, x20, [sp, #16]
     884:	a9025bf5 	stp	x21, x22, [sp, #32]
     888:	a90363f7 	stp	x23, x24, [sp, #48]
     88c:	f90023f9 	str	x25, [sp, #64]
     890:	aa0003f3 	mov	x19, x0
     894:	12003c36 	and	w22, w1, #0xffff
     898:	aa1e03e0 	mov	x0, x30
     89c:	12001c55 	and	w21, w2, #0xff
     8a0:	94000000 	bl	0 <_mcount>
     8a4:	580003f9 	ldr	x25, 920 <ar0330_write_8b_reg+0xa8>
     8a8:	58000380 	ldr	x0, 918 <ar0330_write_8b_reg+0xa0>
     8ac:	52800018 	mov	w24, #0x0                   	// #0
     8b0:	f9410277 	ldr	x23, [x19, #512]
     8b4:	91024014 	add	x20, x0, #0x90
     8b8:	f9400ae0 	ldr	x0, [x23, #16]
     8bc:	2a1503e2 	mov	w2, w21
     8c0:	2a1603e1 	mov	w1, w22
     8c4:	94000000 	bl	0 <regmap_write>
     8c8:	2a0003f3 	mov	w19, w0
     8cc:	35000100 	cbnz	w0, 8ec <ar0330_write_8b_reg+0x74>
     8d0:	2a1303e0 	mov	w0, w19
     8d4:	f94023f9 	ldr	x25, [sp, #64]
     8d8:	a94153f3 	ldp	x19, x20, [sp, #16]
     8dc:	a9425bf5 	ldp	x21, x22, [sp, #32]
     8e0:	a94363f7 	ldp	x23, x24, [sp, #48]
     8e4:	a8c57bfd 	ldp	x29, x30, [sp], #80
     8e8:	d65f03c0 	ret
     8ec:	11000718 	add	w24, w24, #0x1
     8f0:	2a1503e3 	mov	w3, w21
     8f4:	2a1803e4 	mov	w4, w24
     8f8:	2a1603e2 	mov	w2, w22
     8fc:	aa1403e1 	mov	x1, x20
     900:	aa1903e0 	mov	x0, x25
     904:	94000000 	bl	0 <printk>
     908:	71002f1f 	cmp	w24, #0xb
     90c:	54fffd61 	b.ne	8b8 <ar0330_write_8b_reg+0x40>  // b.any
     910:	17fffff0 	b	8d0 <ar0330_write_8b_reg+0x58>
     914:	d503201f 	nop
	...

0000000000000928 <ar0330_write_16b_reg.isra.1>:
     928:	a9bb7bfd 	stp	x29, x30, [sp, #-80]!
     92c:	910003fd 	mov	x29, sp
     930:	a90153f3 	stp	x19, x20, [sp, #16]
     934:	a9025bf5 	stp	x21, x22, [sp, #32]
     938:	a90363f7 	stp	x23, x24, [sp, #48]
     93c:	f90023f9 	str	x25, [sp, #64]
     940:	aa0003f7 	mov	x23, x0
     944:	12003c36 	and	w22, w1, #0xffff
     948:	aa1e03e0 	mov	x0, x30
     94c:	12003c55 	and	w21, w2, #0xffff
     950:	94000000 	bl	0 <_mcount>
     954:	580003b9 	ldr	x25, 9c8 <ar0330_write_16b_reg.isra.1+0xa0>
     958:	58000340 	ldr	x0, 9c0 <ar0330_write_16b_reg.isra.1+0x98>
     95c:	52800018 	mov	w24, #0x0                   	// #0
     960:	9102a014 	add	x20, x0, #0xa8
     964:	f9400ee0 	ldr	x0, [x23, #24]
     968:	2a1503e2 	mov	w2, w21
     96c:	2a1603e1 	mov	w1, w22
     970:	94000000 	bl	0 <regmap_write>
     974:	2a0003f3 	mov	w19, w0
     978:	35000100 	cbnz	w0, 998 <ar0330_write_16b_reg.isra.1+0x70>
     97c:	2a1303e0 	mov	w0, w19
     980:	f94023f9 	ldr	x25, [sp, #64]
     984:	a94153f3 	ldp	x19, x20, [sp, #16]
     988:	a9425bf5 	ldp	x21, x22, [sp, #32]
     98c:	a94363f7 	ldp	x23, x24, [sp, #48]
     990:	a8c57bfd 	ldp	x29, x30, [sp], #80
     994:	d65f03c0 	ret
     998:	11000718 	add	w24, w24, #0x1
     99c:	2a1503e3 	mov	w3, w21
     9a0:	2a1803e4 	mov	w4, w24
     9a4:	2a1603e2 	mov	w2, w22
     9a8:	aa1403e1 	mov	x1, x20
     9ac:	aa1903e0 	mov	x0, x25
     9b0:	94000000 	bl	0 <printk>
     9b4:	71002f1f 	cmp	w24, #0xb
     9b8:	54fffd61 	b.ne	964 <ar0330_write_16b_reg.isra.1+0x3c>  // b.any
     9bc:	17fffff0 	b	97c <ar0330_write_16b_reg.isra.1+0x54>
	...

00000000000009d0 <ar0330_write_32b_reg.isra.2>:
     9d0:	a9bb7bfd 	stp	x29, x30, [sp, #-80]!
     9d4:	910003fd 	mov	x29, sp
     9d8:	a90153f3 	stp	x19, x20, [sp, #16]
     9dc:	a9025bf5 	stp	x21, x22, [sp, #32]
     9e0:	a90363f7 	stp	x23, x24, [sp, #48]
     9e4:	f90023f9 	str	x25, [sp, #64]
     9e8:	aa0003f7 	mov	x23, x0
     9ec:	12003c36 	and	w22, w1, #0xffff
     9f0:	aa1e03e0 	mov	x0, x30
     9f4:	2a0203f5 	mov	w21, w2
     9f8:	94000000 	bl	0 <_mcount>
     9fc:	580003b9 	ldr	x25, a70 <ar0330_write_32b_reg.isra.2+0xa0>
     a00:	58000340 	ldr	x0, a68 <ar0330_write_32b_reg.isra.2+0x98>
     a04:	52800018 	mov	w24, #0x0                   	// #0
     a08:	91030014 	add	x20, x0, #0xc0
     a0c:	f94012e0 	ldr	x0, [x23, #32]
     a10:	2a1503e2 	mov	w2, w21
     a14:	2a1603e1 	mov	w1, w22
     a18:	94000000 	bl	0 <regmap_write>
     a1c:	2a0003f3 	mov	w19, w0
     a20:	35000100 	cbnz	w0, a40 <ar0330_write_32b_reg.isra.2+0x70>
     a24:	2a1303e0 	mov	w0, w19
     a28:	f94023f9 	ldr	x25, [sp, #64]
     a2c:	a94153f3 	ldp	x19, x20, [sp, #16]
     a30:	a9425bf5 	ldp	x21, x22, [sp, #32]
     a34:	a94363f7 	ldp	x23, x24, [sp, #48]
     a38:	a8c57bfd 	ldp	x29, x30, [sp], #80
     a3c:	d65f03c0 	ret
     a40:	11000718 	add	w24, w24, #0x1
     a44:	2a1503e3 	mov	w3, w21
     a48:	2a1803e4 	mov	w4, w24
     a4c:	2a1603e2 	mov	w2, w22
     a50:	aa1403e1 	mov	x1, x20
     a54:	aa1903e0 	mov	x0, x25
     a58:	94000000 	bl	0 <printk>
     a5c:	71002f1f 	cmp	w24, #0xb
     a60:	54fffd61 	b.ne	a0c <ar0330_write_32b_reg.isra.2+0x3c>  // b.any
     a64:	17fffff0 	b	a24 <ar0330_write_32b_reg.isra.2+0x54>
	...

0000000000000a78 <ar0330_s_ctrl>:
     a78:	a9b97bfd 	stp	x29, x30, [sp, #-112]!
     a7c:	910003fd 	mov	x29, sp
     a80:	a90153f3 	stp	x19, x20, [sp, #16]
     a84:	a9025bf5 	stp	x21, x22, [sp, #32]
     a88:	aa0003f4 	mov	x20, x0
     a8c:	aa1e03e0 	mov	x0, x30
     a90:	94000000 	bl	0 <_mcount>
     a94:	7900dfbf 	strh	wzr, [x29, #110]
     a98:	58003780 	ldr	x0, 1188 <ar0330_s_ctrl+0x710>
     a9c:	52800015 	mov	w21, #0x0                   	// #0
     aa0:	f9401293 	ldr	x19, [x20, #32]
     aa4:	f9404676 	ldr	x22, [x19, #136]
     aa8:	94000000 	bl	0 <printk>
     aac:	385f4260 	ldurb	w0, [x19, #-12]
     ab0:	340005e0 	cbz	w0, b6c <ar0330_s_ctrl+0xf4>
     ab4:	b9404a80 	ldr	w0, [x20, #72]
     ab8:	52812261 	mov	w1, #0x913                 	// #2323
     abc:	72a01301 	movk	w1, #0x98, lsl #16
     ac0:	6b01001f 	cmp	w0, w1
     ac4:	54000de0 	b.eq	c80 <ar0330_s_ctrl+0x208>  // b.none
     ac8:	540005c8 	b.hi	b80 <ar0330_s_ctrl+0x108>  // b.pmore
     acc:	52812041 	mov	w1, #0x902                 	// #2306
     ad0:	72a01301 	movk	w1, #0x98, lsl #16
     ad4:	6b01001f 	cmp	w0, w1
     ad8:	54001480 	b.eq	d68 <ar0330_s_ctrl+0x2f0>  // b.none
     adc:	540007e9 	b.ls	bd8 <ar0330_s_ctrl+0x160>  // b.plast
     ae0:	52812181 	mov	w1, #0x90c                 	// #2316
     ae4:	72a01301 	movk	w1, #0x98, lsl #16
     ae8:	6b01001f 	cmp	w0, w1
     aec:	540011a0 	b.eq	d20 <ar0330_s_ctrl+0x2a8>  // b.none
     af0:	11001021 	add	w1, w1, #0x4
     af4:	6b01001f 	cmp	w0, w1
     af8:	54000641 	b.ne	bc0 <ar0330_s_ctrl+0x148>  // b.any
     afc:	580034a0 	ldr	x0, 1190 <ar0330_s_ctrl+0x718>
     b00:	b940ba84 	ldr	w4, [x20, #184]
     b04:	39400000 	ldrb	w0, [x0]
     b08:	6b00009f 	cmp	w4, w0
     b0c:	54001eab 	b.lt	ee0 <ar0330_s_ctrl+0x468>  // b.tstop
     b10:	58003440 	ldr	x0, 1198 <ar0330_s_ctrl+0x720>
     b14:	3951f000 	ldrb	w0, [x0, #1148]
     b18:	6b00009f 	cmp	w4, w0
     b1c:	54001e2c 	b.gt	ee0 <ar0330_s_ctrl+0x468>
     b20:	5290a3e5 	mov	w5, #0x851f                	// #34079
     b24:	52800c83 	mov	w3, #0x64                  	// #100
     b28:	72aa3d65 	movk	w5, #0x51eb, lsl #16
     b2c:	f94102c0 	ldr	x0, [x22, #512]
     b30:	528e0141 	mov	w1, #0x700a                	// #28682
     b34:	52800015 	mov	w21, #0x0                   	// #0
     b38:	9b257c82 	smull	x2, w4, w5
     b3c:	9365fc42 	asr	x2, x2, #37
     b40:	4b847c42 	sub	w2, w2, w4, asr #31
     b44:	1b039043 	msub	w3, w2, w3, w4
     b48:	53144c63 	lsl	w3, w3, #12
     b4c:	9ba57c63 	umull	x3, w3, w5
     b50:	d365fc63 	lsr	x3, x3, #37
     b54:	2a023062 	orr	w2, w3, w2, lsl #12
     b58:	12003c42 	and	w2, w2, #0xffff
     b5c:	7900dfa2 	strh	w2, [x29, #110]
     b60:	97ffff72 	bl	928 <ar0330_write_16b_reg.isra.1>
     b64:	b940ba80 	ldr	w0, [x20, #184]
     b68:	b8164260 	stur	w0, [x19, #-156]
     b6c:	2a1503e0 	mov	w0, w21
     b70:	a94153f3 	ldp	x19, x20, [sp, #16]
     b74:	a9425bf5 	ldp	x21, x22, [sp, #32]
     b78:	a8c77bfd 	ldp	x29, x30, [sp], #112
     b7c:	d65f03c0 	ret
     b80:	52812341 	mov	w1, #0x91a                 	// #2330
     b84:	72a01301 	movk	w1, #0x98, lsl #16
     b88:	6b01001f 	cmp	w0, w1
     b8c:	54000560 	b.eq	c38 <ar0330_s_ctrl+0x1c0>  // b.none
     b90:	54001ea9 	b.ls	f64 <ar0330_s_ctrl+0x4ec>  // b.plast
     b94:	52812021 	mov	w1, #0x901                 	// #2305
     b98:	72a01341 	movk	w1, #0x9a, lsl #16
     b9c:	6b01001f 	cmp	w0, w1
     ba0:	54001680 	b.eq	e70 <ar0330_s_ctrl+0x3f8>  // b.none
     ba4:	11000421 	add	w1, w1, #0x1
     ba8:	6b01001f 	cmp	w0, w1
     bac:	54001220 	b.eq	df0 <ar0330_s_ctrl+0x378>  // b.none
     bb0:	52812361 	mov	w1, #0x91b                 	// #2331
     bb4:	72a01301 	movk	w1, #0x98, lsl #16
     bb8:	6b01001f 	cmp	w0, w1
     bbc:	540008c0 	b.eq	cd4 <ar0330_s_ctrl+0x25c>  // b.none
     bc0:	58003000 	ldr	x0, 11c0 <ar0330_s_ctrl+0x748>
     bc4:	128002b5 	mov	w21, #0xffffffea            	// #-22
     bc8:	58002f41 	ldr	x1, 11b0 <ar0330_s_ctrl+0x738>
     bcc:	9103c021 	add	x1, x1, #0xf0
     bd0:	94000000 	bl	0 <printk>
     bd4:	17ffffe6 	b	b6c <ar0330_s_ctrl+0xf4>
     bd8:	52812001 	mov	w1, #0x900                 	// #2304
     bdc:	72a01301 	movk	w1, #0x98, lsl #16
     be0:	6b01001f 	cmp	w0, w1
     be4:	54000e40 	b.eq	dac <ar0330_s_ctrl+0x334>  // b.none
     be8:	11000421 	add	w1, w1, #0x1
     bec:	6b01001f 	cmp	w0, w1
     bf0:	54fffe81 	b.ne	bc0 <ar0330_s_ctrl+0x148>  // b.any
     bf4:	58002ce0 	ldr	x0, 1190 <ar0330_s_ctrl+0x718>
     bf8:	b940ba82 	ldr	w2, [x20, #184]
     bfc:	39400000 	ldrb	w0, [x0]
     c00:	6b00005f 	cmp	w2, w0
     c04:	540016eb 	b.lt	ee0 <ar0330_s_ctrl+0x468>  // b.tstop
     c08:	58002c80 	ldr	x0, 1198 <ar0330_s_ctrl+0x720>
     c0c:	3951f000 	ldrb	w0, [x0, #1148]
     c10:	6b00005f 	cmp	w2, w0
     c14:	5400166c 	b.gt	ee0 <ar0330_s_ctrl+0x468>
     c18:	f94102c0 	ldr	x0, [x22, #512]
     c1c:	53181c42 	ubfiz	w2, w2, #8, #8
     c20:	528a5b41 	mov	w1, #0x52da                	// #21210
     c24:	52800015 	mov	w21, #0x0                   	// #0
     c28:	97ffff40 	bl	928 <ar0330_write_16b_reg.isra.1>
     c2c:	b940ba80 	ldr	w0, [x20, #184]
     c30:	b8154260 	stur	w0, [x19, #-172]
     c34:	17ffffce 	b	b6c <ar0330_s_ctrl+0xf4>
     c38:	58002b01 	ldr	x1, 1198 <ar0330_s_ctrl+0x720>
     c3c:	b8568262 	ldur	w2, [x19, #-152]
     c40:	3951f020 	ldrb	w0, [x1, #1148]
     c44:	6b00005f 	cmp	w2, w0
     c48:	540017c0 	b.eq	f40 <ar0330_s_ctrl+0x4c8>  // b.none
     c4c:	58002a21 	ldr	x1, 1190 <ar0330_s_ctrl+0x718>
     c50:	b940ba82 	ldr	w2, [x20, #184]
     c54:	39400021 	ldrb	w1, [x1]
     c58:	6b01005f 	cmp	w2, w1
     c5c:	7a42a001 	ccmp	w0, w2, #0x1, ge  // ge = tcont
     c60:	5400140b 	b.lt	ee0 <ar0330_s_ctrl+0x468>  // b.tstop
     c64:	f94102c0 	ldr	x0, [x22, #512]
     c68:	528a2141 	mov	w1, #0x510a                	// #20746
     c6c:	52800015 	mov	w21, #0x0                   	// #0
     c70:	97ffff2e 	bl	928 <ar0330_write_16b_reg.isra.1>
     c74:	b940ba80 	ldr	w0, [x20, #184]
     c78:	b816c260 	stur	w0, [x19, #-148]
     c7c:	17ffffbc 	b	b6c <ar0330_s_ctrl+0xf4>
     c80:	b8578260 	ldur	w0, [x19, #-136]
     c84:	34001260 	cbz	w0, ed0 <ar0330_s_ctrl+0x458>
     c88:	58002840 	ldr	x0, 1190 <ar0330_s_ctrl+0x718>
     c8c:	b940ba81 	ldr	w1, [x20, #184]
     c90:	39400000 	ldrb	w0, [x0]
     c94:	6b00003f 	cmp	w1, w0
     c98:	5400124b 	b.lt	ee0 <ar0330_s_ctrl+0x468>  // b.tstop
     c9c:	580027e0 	ldr	x0, 1198 <ar0330_s_ctrl+0x720>
     ca0:	3951f000 	ldrb	w0, [x0, #1148]
     ca4:	6b00003f 	cmp	w1, w0
     ca8:	540011cc 	b.gt	ee0 <ar0330_s_ctrl+0x468>
     cac:	f94102c0 	ldr	x0, [x22, #512]
     cb0:	53181c21 	ubfiz	w1, w1, #8, #8
     cb4:	2a0103e2 	mov	w2, w1
     cb8:	7900dfa1 	strh	w1, [x29, #110]
     cbc:	528a00c1 	mov	w1, #0x5006                	// #20486
     cc0:	52800015 	mov	w21, #0x0                   	// #0
     cc4:	97ffff19 	bl	928 <ar0330_write_16b_reg.isra.1>
     cc8:	b940ba80 	ldr	w0, [x20, #184]
     ccc:	b8160260 	stur	w0, [x19, #-160]
     cd0:	17ffffa7 	b	b6c <ar0330_s_ctrl+0xf4>
     cd4:	580025e0 	ldr	x0, 1190 <ar0330_s_ctrl+0x718>
     cd8:	b940ba81 	ldr	w1, [x20, #184]
     cdc:	39400000 	ldrb	w0, [x0]
     ce0:	6b00003f 	cmp	w1, w0
     ce4:	54000feb 	b.lt	ee0 <ar0330_s_ctrl+0x468>  // b.tstop
     ce8:	58002580 	ldr	x0, 1198 <ar0330_s_ctrl+0x720>
     cec:	3951f000 	ldrb	w0, [x0, #1148]
     cf0:	6b00003f 	cmp	w1, w0
     cf4:	54000f6c 	b.gt	ee0 <ar0330_s_ctrl+0x468>
     cf8:	f94102c0 	ldr	x0, [x22, #512]
     cfc:	53140c21 	ubfiz	w1, w1, #12, #4
     d00:	2a0103e2 	mov	w2, w1
     d04:	7900dfa1 	strh	w1, [x29, #110]
     d08:	528e0201 	mov	w1, #0x7010                	// #28688
     d0c:	52800015 	mov	w21, #0x0                   	// #0
     d10:	97ffff06 	bl	928 <ar0330_write_16b_reg.isra.1>
     d14:	b940ba80 	ldr	w0, [x20, #184]
     d18:	b815c260 	stur	w0, [x19, #-164]
     d1c:	17ffff94 	b	b6c <ar0330_s_ctrl+0xf4>
     d20:	580023c0 	ldr	x0, 1198 <ar0330_s_ctrl+0x720>
     d24:	b940ba81 	ldr	w1, [x20, #184]
     d28:	b9448015 	ldr	w21, [x0, #1152]
     d2c:	35001055 	cbnz	w21, f34 <ar0330_s_ctrl+0x4bc>
     d30:	58002302 	ldr	x2, 1190 <ar0330_s_ctrl+0x718>
     d34:	39400042 	ldrb	w2, [x2]
     d38:	6b01005f 	cmp	w2, w1
     d3c:	540010a0 	b.eq	f50 <ar0330_s_ctrl+0x4d8>  // b.none
     d40:	3951f000 	ldrb	w0, [x0, #1148]
     d44:	6b01001f 	cmp	w0, w1
     d48:	54000cc1 	b.ne	ee0 <ar0330_s_ctrl+0x468>  // b.any
     d4c:	f94102c0 	ldr	x0, [x22, #512]
     d50:	52822be2 	mov	w2, #0x115f                	// #4447
     d54:	528a2001 	mov	w1, #0x5100                	// #20736
     d58:	97fffef4 	bl	928 <ar0330_write_16b_reg.isra.1>
     d5c:	b940ba80 	ldr	w0, [x20, #184]
     d60:	b8168260 	stur	w0, [x19, #-152]
     d64:	17ffff82 	b	b6c <ar0330_s_ctrl+0xf4>
     d68:	58002140 	ldr	x0, 1190 <ar0330_s_ctrl+0x718>
     d6c:	b940ba82 	ldr	w2, [x20, #184]
     d70:	39400000 	ldrb	w0, [x0]
     d74:	6b00005f 	cmp	w2, w0
     d78:	54000b4b 	b.lt	ee0 <ar0330_s_ctrl+0x468>  // b.tstop
     d7c:	580020e0 	ldr	x0, 1198 <ar0330_s_ctrl+0x720>
     d80:	3951f000 	ldrb	w0, [x0, #1148]
     d84:	6b00005f 	cmp	w2, w0
     d88:	54000acc 	b.gt	ee0 <ar0330_s_ctrl+0x468>
     d8c:	f94102c0 	ldr	x0, [x22, #512]
     d90:	53181c42 	ubfiz	w2, w2, #8, #8
     d94:	528e00c1 	mov	w1, #0x7006                	// #28678
     d98:	52800015 	mov	w21, #0x0                   	// #0
     d9c:	97fffee3 	bl	928 <ar0330_write_16b_reg.isra.1>
     da0:	b940ba80 	ldr	w0, [x20, #184]
     da4:	b8158260 	stur	w0, [x19, #-168]
     da8:	17ffff71 	b	b6c <ar0330_s_ctrl+0xf4>
     dac:	58001f20 	ldr	x0, 1190 <ar0330_s_ctrl+0x718>
     db0:	b940ba82 	ldr	w2, [x20, #184]
     db4:	39400000 	ldrb	w0, [x0]
     db8:	6b00005f 	cmp	w2, w0
     dbc:	5400092b 	b.lt	ee0 <ar0330_s_ctrl+0x468>  // b.tstop
     dc0:	58001ec0 	ldr	x0, 1198 <ar0330_s_ctrl+0x720>
     dc4:	3951f000 	ldrb	w0, [x0, #1148]
     dc8:	6b00005f 	cmp	w2, w0
     dcc:	540008ac 	b.gt	ee0 <ar0330_s_ctrl+0x468>
     dd0:	f94102c0 	ldr	x0, [x22, #512]
     dd4:	53181c42 	ubfiz	w2, w2, #8, #8
     dd8:	528e0001 	mov	w1, #0x7000                	// #28672
     ddc:	52800015 	mov	w21, #0x0                   	// #0
     de0:	97fffed2 	bl	928 <ar0330_write_16b_reg.isra.1>
     de4:	b940ba80 	ldr	w0, [x20, #184]
     de8:	b8150260 	stur	w0, [x19, #-176]
     dec:	17ffff60 	b	b6c <ar0330_s_ctrl+0xf4>
     df0:	b8578260 	ldur	w0, [x19, #-136]
     df4:	34000960 	cbz	w0, f20 <ar0330_s_ctrl+0x4a8>
     df8:	58001cc0 	ldr	x0, 1190 <ar0330_s_ctrl+0x718>
     dfc:	b940ba82 	ldr	w2, [x20, #184]
     e00:	39400000 	ldrb	w0, [x0]
     e04:	6b00005f 	cmp	w2, w0
     e08:	540006cb 	b.lt	ee0 <ar0330_s_ctrl+0x468>  // b.tstop
     e0c:	58001c60 	ldr	x0, 1198 <ar0330_s_ctrl+0x720>
     e10:	3951f000 	ldrb	w0, [x0, #1148]
     e14:	6b00005f 	cmp	w2, w0
     e18:	5400064c 	b.gt	ee0 <ar0330_s_ctrl+0x468>
     e1c:	f9001bb7 	str	x23, [x29, #48]
     e20:	52800c97 	mov	w23, #0x64                  	// #100
     e24:	52840481 	mov	w1, #0x2024                	// #8228
     e28:	52800015 	mov	w21, #0x0                   	// #0
     e2c:	1b177c42 	mul	w2, w2, w23
     e30:	f94102c0 	ldr	x0, [x22, #512]
     e34:	97fffee7 	bl	9d0 <ar0330_write_32b_reg.isra.2>
     e38:	b940ba82 	ldr	w2, [x20, #184]
     e3c:	52840501 	mov	w1, #0x2028                	// #8232
     e40:	f94102c0 	ldr	x0, [x22, #512]
     e44:	1b177c42 	mul	w2, w2, w23
     e48:	97fffee2 	bl	9d0 <ar0330_write_32b_reg.isra.2>
     e4c:	b940ba82 	ldr	w2, [x20, #184]
     e50:	528a0181 	mov	w1, #0x500c                	// #20492
     e54:	f94102c0 	ldr	x0, [x22, #512]
     e58:	1b177c42 	mul	w2, w2, w23
     e5c:	97fffedd 	bl	9d0 <ar0330_write_32b_reg.isra.2>
     e60:	b940ba80 	ldr	w0, [x20, #184]
     e64:	b817c260 	stur	w0, [x19, #-132]
     e68:	f9401bb7 	ldr	x23, [x29, #48]
     e6c:	17ffff40 	b	b6c <ar0330_s_ctrl+0xf4>
     e70:	b940ba80 	ldr	w0, [x20, #184]
     e74:	350003a0 	cbnz	w0, ee8 <ar0330_s_ctrl+0x470>
     e78:	b8534261 	ldur	w1, [x19, #-204]
     e7c:	f94102c0 	ldr	x0, [x22, #512]
     e80:	35000121 	cbnz	w1, ea4 <ar0330_s_ctrl+0x42c>
     e84:	52800002 	mov	w2, #0x0                   	// #0
     e88:	52840481 	mov	w1, #0x2024                	// #8228
     e8c:	97fffed1 	bl	9d0 <ar0330_write_32b_reg.isra.2>
     e90:	f94102c0 	ldr	x0, [x22, #512]
     e94:	52800002 	mov	w2, #0x0                   	// #0
     e98:	52840501 	mov	w1, #0x2028                	// #8232
     e9c:	97fffecd 	bl	9d0 <ar0330_write_32b_reg.isra.2>
     ea0:	f94102c0 	ldr	x0, [x22, #512]
     ea4:	52800582 	mov	w2, #0x2c                  	// #44
     ea8:	528a0041 	mov	w1, #0x5002                	// #20482
     eac:	97fffe9f 	bl	928 <ar0330_write_16b_reg.isra.1>
     eb0:	52800015 	mov	w21, #0x0                   	// #0
     eb4:	f94102c0 	ldr	x0, [x22, #512]
     eb8:	52800802 	mov	w2, #0x40                  	// #64
     ebc:	528a5c81 	mov	w1, #0x52e4                	// #21220
     ec0:	97fffe9a 	bl	928 <ar0330_write_16b_reg.isra.1>
     ec4:	b940ba80 	ldr	w0, [x20, #184]
     ec8:	b8178260 	stur	w0, [x19, #-136]
     ecc:	17ffff28 	b	b6c <ar0330_s_ctrl+0xf4>
     ed0:	58001640 	ldr	x0, 1198 <ar0330_s_ctrl+0x720>
     ed4:	b9448000 	ldr	w0, [x0, #1152]
     ed8:	35ffed80 	cbnz	w0, c88 <ar0330_s_ctrl+0x210>
     edc:	d503201f 	nop
     ee0:	128002b5 	mov	w21, #0xffffffea            	// #-22
     ee4:	17ffff22 	b	b6c <ar0330_s_ctrl+0xf4>
     ee8:	7100041f 	cmp	w0, #0x1
     eec:	54ffffa1 	b.ne	ee0 <ar0330_s_ctrl+0x468>  // b.any
     ef0:	f94102c0 	ldr	x0, [x22, #512]
     ef4:	52800402 	mov	w2, #0x20                  	// #32
     ef8:	528a0041 	mov	w1, #0x5002                	// #20482
     efc:	52800015 	mov	w21, #0x0                   	// #0
     f00:	97fffe8a 	bl	928 <ar0330_write_16b_reg.isra.1>
     f04:	f94102c0 	ldr	x0, [x22, #512]
     f08:	52800002 	mov	w2, #0x0                   	// #0
     f0c:	528a5c81 	mov	w1, #0x52e4                	// #21220
     f10:	97fffe86 	bl	928 <ar0330_write_16b_reg.isra.1>
     f14:	b940ba80 	ldr	w0, [x20, #184]
     f18:	b8178260 	stur	w0, [x19, #-136]
     f1c:	17ffff14 	b	b6c <ar0330_s_ctrl+0xf4>
     f20:	580013c0 	ldr	x0, 1198 <ar0330_s_ctrl+0x720>
     f24:	b9448000 	ldr	w0, [x0, #1152]
     f28:	35fff680 	cbnz	w0, df8 <ar0330_s_ctrl+0x380>
     f2c:	128002b5 	mov	w21, #0xffffffea            	// #-22
     f30:	17ffff0f 	b	b6c <ar0330_s_ctrl+0xf4>
     f34:	52800015 	mov	w21, #0x0                   	// #0
     f38:	b8168261 	stur	w1, [x19, #-152]
     f3c:	17ffff0c 	b	b6c <ar0330_s_ctrl+0xf4>
     f40:	b9448021 	ldr	w1, [x1, #1152]
     f44:	35ffe841 	cbnz	w1, c4c <ar0330_s_ctrl+0x1d4>
     f48:	128002b5 	mov	w21, #0xffffffea            	// #-22
     f4c:	17ffff08 	b	b6c <ar0330_s_ctrl+0xf4>
     f50:	f94102c0 	ldr	x0, [x22, #512]
     f54:	52822ae2 	mov	w2, #0x1157                	// #4439
     f58:	528a2001 	mov	w1, #0x5100                	// #20736
     f5c:	97fffe73 	bl	928 <ar0330_write_16b_reg.isra.1>
     f60:	17ffff7f 	b	d5c <ar0330_s_ctrl+0x2e4>
     f64:	52812281 	mov	w1, #0x914                 	// #2324
     f68:	72a01301 	movk	w1, #0x98, lsl #16
     f6c:	6b01001f 	cmp	w0, w1
     f70:	54000620 	b.eq	1034 <ar0330_s_ctrl+0x5bc>  // b.none
     f74:	11000421 	add	w1, w1, #0x1
     f78:	6b01001f 	cmp	w0, w1
     f7c:	54ffe221 	b.ne	bc0 <ar0330_s_ctrl+0x148>  // b.any
     f80:	9101c3b5 	add	x21, x29, #0x70
     f84:	a90363b7 	stp	x23, x24, [x29, #48]
     f88:	a9046bb9 	stp	x25, x26, [x29, #64]
     f8c:	52800017 	mov	w23, #0x0                   	// #0
     f90:	a90573bb 	stp	x27, x28, [x29, #80]
     f94:	58001060 	ldr	x0, 11a0 <ar0330_s_ctrl+0x728>
     f98:	785feea1 	ldrh	w1, [x21, #-2]!
     f9c:	f94102db 	ldr	x27, [x22, #512]
     fa0:	94000000 	bl	0 <printk>
     fa4:	58001078 	ldr	x24, 11b0 <ar0330_s_ctrl+0x738>
     fa8:	58001019 	ldr	x25, 11a8 <ar0330_s_ctrl+0x730>
     fac:	5800107a 	ldr	x26, 11b8 <ar0330_s_ctrl+0x740>
     fb0:	91036318 	add	x24, x24, #0xd8
     fb4:	f9400f60 	ldr	x0, [x27, #24]
     fb8:	52820181 	mov	w1, #0x100c                	// #4108
     fbc:	aa1503e2 	mov	x2, x21
     fc0:	94000000 	bl	0 <regmap_read>
     fc4:	2a0003fc 	mov	w28, w0
     fc8:	7940dfa1 	ldrh	w1, [x29, #110]
     fcc:	aa1903e0 	mov	x0, x25
     fd0:	94000000 	bl	0 <printk>
     fd4:	35000c5c 	cbnz	w28, 115c <ar0330_s_ctrl+0x6e4>
     fd8:	58000e01 	ldr	x1, 1198 <ar0330_s_ctrl+0x720>
     fdc:	b940ba80 	ldr	w0, [x20, #184]
     fe0:	3951f021 	ldrb	w1, [x1, #1148]
     fe4:	6b01001f 	cmp	w0, w1
     fe8:	54000ac0 	b.eq	1140 <ar0330_s_ctrl+0x6c8>  // b.none
     fec:	58000d21 	ldr	x1, 1190 <ar0330_s_ctrl+0x718>
     ff0:	39400021 	ldrb	w1, [x1]
     ff4:	6b01001f 	cmp	w0, w1
     ff8:	54000781 	b.ne	10e8 <ar0330_s_ctrl+0x670>  // b.any
     ffc:	f94102c0 	ldr	x0, [x22, #512]
    1000:	52820181 	mov	w1, #0x100c                	// #4108
    1004:	7940dfa2 	ldrh	w2, [x29, #110]
    1008:	321f0042 	orr	w2, w2, #0x2
    100c:	12003c42 	and	w2, w2, #0xffff
    1010:	7900dfa2 	strh	w2, [x29, #110]
    1014:	97fffe45 	bl	928 <ar0330_write_16b_reg.isra.1>
    1018:	b940ba80 	ldr	w0, [x20, #184]
    101c:	52800015 	mov	w21, #0x0                   	// #0
    1020:	b8170260 	stur	w0, [x19, #-144]
    1024:	a94363b7 	ldp	x23, x24, [x29, #48]
    1028:	a9446bb9 	ldp	x25, x26, [x29, #64]
    102c:	a94573bb 	ldp	x27, x28, [x29, #80]
    1030:	17fffecf 	b	b6c <ar0330_s_ctrl+0xf4>
    1034:	9101c3b5 	add	x21, x29, #0x70
    1038:	a90363b7 	stp	x23, x24, [x29, #48]
    103c:	a9046bb9 	stp	x25, x26, [x29, #64]
    1040:	52800017 	mov	w23, #0x0                   	// #0
    1044:	a90573bb 	stp	x27, x28, [x29, #80]
    1048:	58000ac0 	ldr	x0, 11a0 <ar0330_s_ctrl+0x728>
    104c:	785feea1 	ldrh	w1, [x21, #-2]!
    1050:	f94102db 	ldr	x27, [x22, #512]
    1054:	94000000 	bl	0 <printk>
    1058:	58000ad8 	ldr	x24, 11b0 <ar0330_s_ctrl+0x738>
    105c:	58000a79 	ldr	x25, 11a8 <ar0330_s_ctrl+0x730>
    1060:	58000ada 	ldr	x26, 11b8 <ar0330_s_ctrl+0x740>
    1064:	91036318 	add	x24, x24, #0xd8
    1068:	f9400f60 	ldr	x0, [x27, #24]
    106c:	52820181 	mov	w1, #0x100c                	// #4108
    1070:	aa1503e2 	mov	x2, x21
    1074:	94000000 	bl	0 <regmap_read>
    1078:	2a0003fc 	mov	w28, w0
    107c:	7940dfa1 	ldrh	w1, [x29, #110]
    1080:	aa1903e0 	mov	x0, x25
    1084:	94000000 	bl	0 <printk>
    1088:	3500049c 	cbnz	w28, 1118 <ar0330_s_ctrl+0x6a0>
    108c:	58000861 	ldr	x1, 1198 <ar0330_s_ctrl+0x720>
    1090:	b940ba80 	ldr	w0, [x20, #184]
    1094:	3951f021 	ldrb	w1, [x1, #1148]
    1098:	6b01001f 	cmp	w0, w1
    109c:	54000300 	b.eq	10fc <ar0330_s_ctrl+0x684>  // b.none
    10a0:	58000781 	ldr	x1, 1190 <ar0330_s_ctrl+0x718>
    10a4:	39400021 	ldrb	w1, [x1]
    10a8:	6b01001f 	cmp	w0, w1
    10ac:	540001e1 	b.ne	10e8 <ar0330_s_ctrl+0x670>  // b.any
    10b0:	f94102c0 	ldr	x0, [x22, #512]
    10b4:	52820181 	mov	w1, #0x100c                	// #4108
    10b8:	7940dfa2 	ldrh	w2, [x29, #110]
    10bc:	32000042 	orr	w2, w2, #0x1
    10c0:	12003c42 	and	w2, w2, #0xffff
    10c4:	7900dfa2 	strh	w2, [x29, #110]
    10c8:	97fffe18 	bl	928 <ar0330_write_16b_reg.isra.1>
    10cc:	b940ba80 	ldr	w0, [x20, #184]
    10d0:	52800015 	mov	w21, #0x0                   	// #0
    10d4:	b8174260 	stur	w0, [x19, #-140]
    10d8:	a94363b7 	ldp	x23, x24, [x29, #48]
    10dc:	a9446bb9 	ldp	x25, x26, [x29, #64]
    10e0:	a94573bb 	ldp	x27, x28, [x29, #80]
    10e4:	17fffea2 	b	b6c <ar0330_s_ctrl+0xf4>
    10e8:	a94363b7 	ldp	x23, x24, [x29, #48]
    10ec:	128002b5 	mov	w21, #0xffffffea            	// #-22
    10f0:	a9446bb9 	ldp	x25, x26, [x29, #64]
    10f4:	a94573bb 	ldp	x27, x28, [x29, #80]
    10f8:	17fffe9d 	b	b6c <ar0330_s_ctrl+0xf4>
    10fc:	f94102c0 	ldr	x0, [x22, #512]
    1100:	52820181 	mov	w1, #0x100c                	// #4108
    1104:	7940dfa2 	ldrh	w2, [x29, #110]
    1108:	121f0042 	and	w2, w2, #0x2
    110c:	7900dfa2 	strh	w2, [x29, #110]
    1110:	97fffe06 	bl	928 <ar0330_write_16b_reg.isra.1>
    1114:	17ffffee 	b	10cc <ar0330_s_ctrl+0x654>
    1118:	7940dfa3 	ldrh	w3, [x29, #110]
    111c:	110006f7 	add	w23, w23, #0x1
    1120:	2a1703e4 	mov	w4, w23
    1124:	52820182 	mov	w2, #0x100c                	// #4108
    1128:	aa1803e1 	mov	x1, x24
    112c:	aa1a03e0 	mov	x0, x26
    1130:	94000000 	bl	0 <printk>
    1134:	71002eff 	cmp	w23, #0xb
    1138:	54fff981 	b.ne	1068 <ar0330_s_ctrl+0x5f0>  // b.any
    113c:	17ffffd4 	b	108c <ar0330_s_ctrl+0x614>
    1140:	f94102c0 	ldr	x0, [x22, #512]
    1144:	52820181 	mov	w1, #0x100c                	// #4108
    1148:	7940dfa2 	ldrh	w2, [x29, #110]
    114c:	12000042 	and	w2, w2, #0x1
    1150:	7900dfa2 	strh	w2, [x29, #110]
    1154:	97fffdf5 	bl	928 <ar0330_write_16b_reg.isra.1>
    1158:	17ffffb0 	b	1018 <ar0330_s_ctrl+0x5a0>
    115c:	7940dfa3 	ldrh	w3, [x29, #110]
    1160:	110006f7 	add	w23, w23, #0x1
    1164:	2a1703e4 	mov	w4, w23
    1168:	52820182 	mov	w2, #0x100c                	// #4108
    116c:	aa1803e1 	mov	x1, x24
    1170:	aa1a03e0 	mov	x0, x26
    1174:	94000000 	bl	0 <printk>
    1178:	71002eff 	cmp	w23, #0xb
    117c:	54fff1c1 	b.ne	fb4 <ar0330_s_ctrl+0x53c>  // b.any
    1180:	17ffff96 	b	fd8 <ar0330_s_ctrl+0x560>
    1184:	d503201f 	nop
	...

00000000000011c8 <ar0330_gpio_set>:
    11c8:	a9bd7bfd 	stp	x29, x30, [sp, #-48]!
    11cc:	910003fd 	mov	x29, sp
    11d0:	a90153f3 	stp	x19, x20, [sp, #16]
    11d4:	f90013f5 	str	x21, [sp, #32]
    11d8:	aa0003f5 	mov	x21, x0
    11dc:	2a0103f3 	mov	w19, w1
    11e0:	aa1e03e0 	mov	x0, x30
    11e4:	2a0203f4 	mov	w20, w2
    11e8:	94000000 	bl	0 <_mcount>
    11ec:	f940aea0 	ldr	x0, [x21, #344]
    11f0:	b4000060 	cbz	x0, 11fc <ar0330_gpio_set+0x34>
    11f4:	39414000 	ldrb	w0, [x0, #80]
    11f8:	350003a0 	cbnz	w0, 126c <ar0330_gpio_set+0xa4>
    11fc:	2a1303e0 	mov	w0, w19
    1200:	94000000 	bl	0 <gpio_to_desc>
    1204:	94000000 	bl	0 <gpiod_cansleep>
    1208:	350001a0 	cbnz	w0, 123c <ar0330_gpio_set+0x74>
    120c:	2a1303e0 	mov	w0, w19
    1210:	94000000 	bl	0 <gpio_to_desc>
    1214:	2a1403e1 	mov	w1, w20
    1218:	94000000 	bl	0 <gpiod_direction_output_raw>
    121c:	2a1303e0 	mov	w0, w19
    1220:	94000000 	bl	0 <gpio_to_desc>
    1224:	2a1403e1 	mov	w1, w20
    1228:	94000000 	bl	0 <gpiod_set_raw_value>
    122c:	a94153f3 	ldp	x19, x20, [sp, #16]
    1230:	f94013f5 	ldr	x21, [sp, #32]
    1234:	a8c37bfd 	ldp	x29, x30, [sp], #48
    1238:	d65f03c0 	ret
    123c:	2a1303e0 	mov	w0, w19
    1240:	94000000 	bl	0 <gpio_to_desc>
    1244:	2a1403e1 	mov	w1, w20
    1248:	94000000 	bl	0 <gpiod_direction_output_raw>
    124c:	2a1303e0 	mov	w0, w19
    1250:	94000000 	bl	0 <gpio_to_desc>
    1254:	2a1403e1 	mov	w1, w20
    1258:	94000000 	bl	0 <gpiod_set_raw_value_cansleep>
    125c:	a94153f3 	ldp	x19, x20, [sp, #16]
    1260:	f94013f5 	ldr	x21, [sp, #32]
    1264:	a8c37bfd 	ldp	x29, x30, [sp], #48
    1268:	d65f03c0 	ret
    126c:	f940aaa0 	ldr	x0, [x21, #336]
    1270:	2a1403e2 	mov	w2, w20
    1274:	2a1303e1 	mov	w1, w19
    1278:	52800023 	mov	w3, #0x1                   	// #1
    127c:	91008000 	add	x0, x0, #0x20
    1280:	94000000 	bl	0 <cam_gpio_ctrl>
    1284:	a94153f3 	ldp	x19, x20, [sp, #16]
    1288:	f94013f5 	ldr	x21, [sp, #32]
    128c:	a8c37bfd 	ldp	x29, x30, [sp], #48
    1290:	d65f03c0 	ret
    1294:	d503201f 	nop

0000000000001298 <ar0330_power_off>:
    1298:	a9be7bfd 	stp	x29, x30, [sp, #-32]!
    129c:	910003fd 	mov	x29, sp
    12a0:	a90153f3 	stp	x19, x20, [sp, #16]
    12a4:	aa0003f3 	mov	x19, x0
    12a8:	aa1e03e0 	mov	x0, x30
    12ac:	94000000 	bl	0 <_mcount>
    12b0:	f9410273 	ldr	x19, [x19, #512]
    12b4:	91026274 	add	x20, x19, #0x98
    12b8:	d503201f 	nop
    12bc:	f940ae60 	ldr	x0, [x19, #344]
    12c0:	b40002e0 	cbz	x0, 131c <ar0330_power_off+0x84>
    12c4:	f9401001 	ldr	x1, [x0, #32]
    12c8:	b40002a1 	cbz	x1, 131c <ar0330_power_off+0x84>
    12cc:	f9401401 	ldr	x1, [x0, #40]
    12d0:	aa1403e0 	mov	x0, x20
    12d4:	d63f0020 	blr	x1
    12d8:	2a0003f3 	mov	w19, w0
    12dc:	35000600 	cbnz	w0, 139c <ar0330_power_off+0x104>
    12e0:	3900d29f 	strb	wzr, [x20, #52]
    12e4:	2a1303e0 	mov	w0, w19
    12e8:	a94153f3 	ldp	x19, x20, [sp, #16]
    12ec:	a8c27bfd 	ldp	x29, x30, [sp], #32
    12f0:	d65f03c0 	ret
    12f4:	58000622 	ldr	x2, 13b8 <ar0330_power_off+0x120>
    12f8:	580005c3 	ldr	x3, 13b0 <ar0330_power_off+0x118>
    12fc:	58000620 	ldr	x0, 13c0 <ar0330_power_off+0x128>
    1300:	f940aa61 	ldr	x1, [x19, #336]
    1304:	91040063 	add	x3, x3, #0x100
    1308:	91020000 	add	x0, x0, #0x80
    130c:	91008021 	add	x1, x1, #0x20
    1310:	94000000 	bl	0 <__dynamic_dev_dbg>
    1314:	f940ae60 	ldr	x0, [x19, #344]
    1318:	b5fffd60 	cbnz	x0, 12c4 <ar0330_power_off+0x2c>
    131c:	d2800321 	mov	x1, #0x19                  	// #25
    1320:	d28002a0 	mov	x0, #0x15                  	// #21
    1324:	94000000 	bl	0 <usleep_range>
    1328:	b9402a81 	ldr	w1, [x20, #40]
    132c:	35000301 	cbnz	w1, 138c <ar0330_power_off+0xf4>
    1330:	d2800041 	mov	x1, #0x2                   	// #2
    1334:	d2800020 	mov	x0, #0x1                   	// #1
    1338:	94000000 	bl	0 <usleep_range>
    133c:	b9402e81 	ldr	w1, [x20, #44]
    1340:	350001e1 	cbnz	w1, 137c <ar0330_power_off+0xe4>
    1344:	d280fa00 	mov	x0, #0x7d0                 	// #2000
    1348:	d280fb41 	mov	x1, #0x7da                 	// #2010
    134c:	94000000 	bl	0 <usleep_range>
    1350:	f9400a80 	ldr	x0, [x20, #16]
    1354:	b4000040 	cbz	x0, 135c <ar0330_power_off+0xc4>
    1358:	94000000 	bl	0 <regulator_disable>
    135c:	f9400680 	ldr	x0, [x20, #8]
    1360:	52800013 	mov	w19, #0x0                   	// #0
    1364:	b4fffc00 	cbz	x0, 12e4 <ar0330_power_off+0x4c>
    1368:	94000000 	bl	0 <regulator_disable>
    136c:	2a1303e0 	mov	w0, w19
    1370:	a94153f3 	ldp	x19, x20, [sp, #16]
    1374:	a8c27bfd 	ldp	x29, x30, [sp], #32
    1378:	d65f03c0 	ret
    137c:	52800002 	mov	w2, #0x0                   	// #0
    1380:	aa1303e0 	mov	x0, x19
    1384:	97ffff91 	bl	11c8 <ar0330_gpio_set>
    1388:	17ffffef 	b	1344 <ar0330_power_off+0xac>
    138c:	52800002 	mov	w2, #0x0                   	// #0
    1390:	aa1303e0 	mov	x0, x19
    1394:	97ffff8d 	bl	11c8 <ar0330_gpio_set>
    1398:	17ffffe6 	b	1330 <ar0330_power_off+0x98>
    139c:	58000160 	ldr	x0, 13c8 <ar0330_power_off+0x130>
    13a0:	58000081 	ldr	x1, 13b0 <ar0330_power_off+0x118>
    13a4:	91040021 	add	x1, x1, #0x100
    13a8:	94000000 	bl	0 <printk>
    13ac:	17ffffce 	b	12e4 <ar0330_power_off+0x4c>
	...

00000000000013d0 <ar0330_power_on>:
    13d0:	a9bd7bfd 	stp	x29, x30, [sp, #-48]!
    13d4:	910003fd 	mov	x29, sp
    13d8:	a90153f3 	stp	x19, x20, [sp, #16]
    13dc:	aa0003f3 	mov	x19, x0
    13e0:	aa1e03e0 	mov	x0, x30
    13e4:	94000000 	bl	0 <_mcount>
    13e8:	f9410273 	ldr	x19, [x19, #512]
    13ec:	d503201f 	nop
    13f0:	f940ae60 	ldr	x0, [x19, #344]
    13f4:	b40001c0 	cbz	x0, 142c <ar0330_power_on+0x5c>
    13f8:	f9401001 	ldr	x1, [x0, #32]
    13fc:	b4000181 	cbz	x1, 142c <ar0330_power_on+0x5c>
    1400:	91026273 	add	x19, x19, #0x98
    1404:	aa1303e0 	mov	x0, x19
    1408:	d63f0020 	blr	x1
    140c:	2a0003f4 	mov	w20, w0
    1410:	35000900 	cbnz	w0, 1530 <ar0330_power_on+0x160>
    1414:	52800020 	mov	w0, #0x1                   	// #1
    1418:	3900d260 	strb	w0, [x19, #52]
    141c:	2a1403e0 	mov	w0, w20
    1420:	a94153f3 	ldp	x19, x20, [sp, #16]
    1424:	a8c37bfd 	ldp	x29, x30, [sp], #48
    1428:	d65f03c0 	ret
    142c:	f90013b5 	str	x21, [x29, #32]
    1430:	91026275 	add	x21, x19, #0x98
    1434:	f94006a0 	ldr	x0, [x21, #8]
    1438:	b4000060 	cbz	x0, 1444 <ar0330_power_on+0x74>
    143c:	94000000 	bl	0 <regulator_enable>
    1440:	350006a0 	cbnz	w0, 1514 <ar0330_power_on+0x144>
    1444:	f9400aa0 	ldr	x0, [x21, #16]
    1448:	b4000060 	cbz	x0, 1454 <ar0330_power_on+0x84>
    144c:	94000000 	bl	0 <regulator_enable>
    1450:	350005e0 	cbnz	w0, 150c <ar0330_power_on+0x13c>
    1454:	b9402ea1 	ldr	w1, [x21, #44]
    1458:	35000521 	cbnz	w1, 14fc <ar0330_power_on+0x12c>
    145c:	d280fb41 	mov	x1, #0x7da                 	// #2010
    1460:	d280fa00 	mov	x0, #0x7d0                 	// #2000
    1464:	94000000 	bl	0 <usleep_range>
    1468:	d2800041 	mov	x1, #0x2                   	// #2
    146c:	d2800020 	mov	x0, #0x1                   	// #1
    1470:	94000000 	bl	0 <usleep_range>
    1474:	b9402aa1 	ldr	w1, [x21, #40]
    1478:	350003a1 	cbnz	w1, 14ec <ar0330_power_on+0x11c>
    147c:	d280fb41 	mov	x1, #0x7da                 	// #2010
    1480:	d280fa00 	mov	x0, #0x7d0                 	// #2000
    1484:	94000000 	bl	0 <usleep_range>
    1488:	b9402ea1 	ldr	w1, [x21, #44]
    148c:	34000081 	cbz	w1, 149c <ar0330_power_on+0xcc>
    1490:	52800022 	mov	w2, #0x1                   	// #1
    1494:	aa1303e0 	mov	x0, x19
    1498:	97ffff4c 	bl	11c8 <ar0330_gpio_set>
    149c:	d280aa01 	mov	x1, #0x550                 	// #1360
    14a0:	d280a8c0 	mov	x0, #0x546                 	// #1350
    14a4:	94000000 	bl	0 <usleep_range>
    14a8:	52800014 	mov	w20, #0x0                   	// #0
    14ac:	52800020 	mov	w0, #0x1                   	// #1
    14b0:	3900d2a0 	strb	w0, [x21, #52]
    14b4:	2a1403e0 	mov	w0, w20
    14b8:	f94013b5 	ldr	x21, [x29, #32]
    14bc:	a94153f3 	ldp	x19, x20, [sp, #16]
    14c0:	a8c37bfd 	ldp	x29, x30, [sp], #48
    14c4:	d65f03c0 	ret
    14c8:	58000442 	ldr	x2, 1550 <ar0330_power_on+0x180>
    14cc:	f940aa61 	ldr	x1, [x19, #336]
    14d0:	580003c3 	ldr	x3, 1548 <ar0330_power_on+0x178>
    14d4:	58000420 	ldr	x0, 1558 <ar0330_power_on+0x188>
    14d8:	91008021 	add	x1, x1, #0x20
    14dc:	91046063 	add	x3, x3, #0x118
    14e0:	91030000 	add	x0, x0, #0xc0
    14e4:	94000000 	bl	0 <__dynamic_dev_dbg>
    14e8:	17ffffc2 	b	13f0 <ar0330_power_on+0x20>
    14ec:	52800002 	mov	w2, #0x0                   	// #0
    14f0:	aa1303e0 	mov	x0, x19
    14f4:	97ffff35 	bl	11c8 <ar0330_gpio_set>
    14f8:	17ffffe1 	b	147c <ar0330_power_on+0xac>
    14fc:	52800002 	mov	w2, #0x0                   	// #0
    1500:	aa1303e0 	mov	x0, x19
    1504:	97ffff31 	bl	11c8 <ar0330_gpio_set>
    1508:	17ffffd5 	b	145c <ar0330_power_on+0x8c>
    150c:	f94006a0 	ldr	x0, [x21, #8]
    1510:	94000000 	bl	0 <regulator_disable>
    1514:	58000260 	ldr	x0, 1560 <ar0330_power_on+0x190>
    1518:	12800254 	mov	w20, #0xffffffed            	// #-19
    151c:	58000161 	ldr	x1, 1548 <ar0330_power_on+0x178>
    1520:	91046021 	add	x1, x1, #0x118
    1524:	94000000 	bl	0 <printk>
    1528:	f94013b5 	ldr	x21, [x29, #32]
    152c:	17ffffbc 	b	141c <ar0330_power_on+0x4c>
    1530:	58000180 	ldr	x0, 1560 <ar0330_power_on+0x190>
    1534:	580000a1 	ldr	x1, 1548 <ar0330_power_on+0x178>
    1538:	91046021 	add	x1, x1, #0x118
    153c:	94000000 	bl	0 <printk>
    1540:	17ffffb7 	b	141c <ar0330_power_on+0x4c>
    1544:	d503201f 	nop
	...

0000000000001568 <ar0330_probe>:
    1568:	a9b47bfd 	stp	x29, x30, [sp, #-192]!
    156c:	910003fd 	mov	x29, sp
    1570:	f9000bf3 	str	x19, [sp, #16]
    1574:	f90017f6 	str	x22, [sp, #40]
    1578:	f9002bfb 	str	x27, [sp, #80]
    157c:	aa0003f6 	mov	x22, x0
    1580:	aa1e03e0 	mov	x0, x30
    1584:	94000000 	bl	0 <_mcount>
    1588:	58007bc0 	ldr	x0, 2500 <ar0330_probe+0xf98>
    158c:	f94146d3 	ldr	x19, [x22, #648]
    1590:	94000000 	bl	0 <printk>
    1594:	b4002733 	cbz	x19, 1a78 <ar0330_probe+0x510>
    1598:	a901d7b4 	stp	x20, x21, [x29, #24]
    159c:	52901802 	mov	w2, #0x80c0                	// #32960
    15a0:	910082d5 	add	x21, x22, #0x20
    15a4:	72a04802 	movk	w2, #0x240, lsl #16
    15a8:	d2804901 	mov	x1, #0x248                 	// #584
    15ac:	aa1503e0 	mov	x0, x21
    15b0:	94000000 	bl	0 <devm_kmalloc>
    15b4:	aa0003f4 	mov	x20, x0
    15b8:	b4002500 	cbz	x0, 1a58 <ar0330_probe+0x4f0>
    15bc:	52901802 	mov	w2, #0x80c0                	// #32960
    15c0:	d2807b01 	mov	x1, #0x3d8                 	// #984
    15c4:	72a04802 	movk	w2, #0x240, lsl #16
    15c8:	aa1503e0 	mov	x0, x21
    15cc:	94000000 	bl	0 <devm_kmalloc>
    15d0:	aa0003f3 	mov	x19, x0
    15d4:	b4002420 	cbz	x0, 1a58 <ar0330_probe+0x4f0>
    15d8:	f9001bb7 	str	x23, [x29, #48]
    15dc:	d2800003 	mov	x3, #0x0                   	// #0
    15e0:	58007957 	ldr	x23, 2508 <ar0330_probe+0xfa0>
    15e4:	d2800002 	mov	x2, #0x0                   	// #0
    15e8:	aa1603e0 	mov	x0, x22
    15ec:	910502e1 	add	x1, x23, #0x140
    15f0:	94000000 	bl	0 <__devm_regmap_init_i2c>
    15f4:	f9000a60 	str	x0, [x19, #16]
    15f8:	b140041f 	cmn	x0, #0x1, lsl #12
    15fc:	54001c88 	b.hi	198c <ar0330_probe+0x424>  // b.pmore
    1600:	580078c0 	ldr	x0, 2518 <ar0330_probe+0xfb0>
    1604:	94000000 	bl	0 <printk>
    1608:	d2800003 	mov	x3, #0x0                   	// #0
    160c:	d2800002 	mov	x2, #0x0                   	// #0
    1610:	910882e1 	add	x1, x23, #0x220
    1614:	aa1603e0 	mov	x0, x22
    1618:	94000000 	bl	0 <__devm_regmap_init_i2c>
    161c:	f9000e60 	str	x0, [x19, #24]
    1620:	b140041f 	cmn	x0, #0x1, lsl #12
    1624:	54001ce8 	b.hi	19c0 <ar0330_probe+0x458>  // b.pmore
    1628:	a903e7b8 	stp	x24, x25, [x29, #56]
    162c:	910303b8 	add	x24, x29, #0xc0
    1630:	580077d9 	ldr	x25, 2528 <ar0330_probe+0xfc0>
    1634:	52800001 	mov	w1, #0x0                   	// #0
    1638:	b81d8f1f 	str	wzr, [x24, #-40]!
    163c:	aa1903e0 	mov	x0, x25
    1640:	94000000 	bl	0 <printk>
    1644:	f9400e60 	ldr	x0, [x19, #24]
    1648:	aa1803e2 	mov	x2, x24
    164c:	52800001 	mov	w1, #0x0                   	// #0
    1650:	94000000 	bl	0 <regmap_read>
    1654:	2a0003e1 	mov	w1, w0
    1658:	b9409ba2 	ldr	w2, [x29, #152]
    165c:	580076a0 	ldr	x0, 2530 <ar0330_probe+0xfc8>
    1660:	94000000 	bl	0 <printk>
    1664:	f9400e60 	ldr	x0, [x19, #24]
    1668:	aa1803e2 	mov	x2, x24
    166c:	52860001 	mov	w1, #0x3000                	// #12288
    1670:	94000000 	bl	0 <regmap_read>
    1674:	2a0003e1 	mov	w1, w0
    1678:	b9409ba2 	ldr	w2, [x29, #152]
    167c:	580075e0 	ldr	x0, 2538 <ar0330_probe+0xfd0>
    1680:	94000000 	bl	0 <printk>
    1684:	b9409ba1 	ldr	w1, [x29, #152]
    1688:	aa1903e0 	mov	x0, x25
    168c:	94000000 	bl	0 <printk>
    1690:	d2800003 	mov	x3, #0x0                   	// #0
    1694:	d2800002 	mov	x2, #0x0                   	// #0
    1698:	910c02e1 	add	x1, x23, #0x300
    169c:	aa1603e0 	mov	x0, x22
    16a0:	94000000 	bl	0 <__devm_regmap_init_i2c>
    16a4:	f9001260 	str	x0, [x19, #32]
    16a8:	b140041f 	cmn	x0, #0x1, lsl #12
    16ac:	540018e8 	b.hi	19c8 <ar0330_probe+0x460>  // b.pmore
    16b0:	f94146d9 	ldr	x25, [x22, #648]
    16b4:	b4001519 	cbz	x25, 1954 <ar0330_probe+0x3ec>
    16b8:	58007498 	ldr	x24, 2548 <ar0330_probe+0xfe0>
    16bc:	aa1503e1 	mov	x1, x21
    16c0:	91122300 	add	x0, x24, #0x488
    16c4:	94000000 	bl	0 <of_match_device>
    16c8:	b4001ce0 	cbz	x0, 1a64 <ar0330_probe+0x4fc>
    16cc:	52901802 	mov	w2, #0x80c0                	// #32960
    16d0:	d2800b01 	mov	x1, #0x58                  	// #88
    16d4:	72a04802 	movk	w2, #0x240, lsl #16
    16d8:	aa1503e0 	mov	x0, x21
    16dc:	94000000 	bl	0 <devm_kmalloc>
    16e0:	aa0003fb 	mov	x27, x0
    16e4:	b4001380 	cbz	x0, 1954 <ar0330_probe+0x3ec>
    16e8:	aa0003e1 	mov	x1, x0
    16ec:	aa1503e0 	mov	x0, x21
    16f0:	94000000 	bl	0 <camera_common_parse_clocks>
    16f4:	350018a0 	cbnz	w0, 1a08 <ar0330_probe+0x4a0>
    16f8:	58007341 	ldr	x1, 2560 <ar0330_probe+0xff8>
    16fc:	d2800003 	mov	x3, #0x0                   	// #0
    1700:	52800002 	mov	w2, #0x0                   	// #0
    1704:	aa1903e0 	mov	x0, x25
    1708:	94000000 	bl	0 <of_get_named_gpio_flags>
    170c:	37f818e0 	tbnz	w0, #31, 1a28 <ar0330_probe+0x4c0>
    1710:	58007301 	ldr	x1, 2570 <ar0330_probe+0x1008>
    1714:	d2800003 	mov	x3, #0x0                   	// #0
    1718:	b9001360 	str	w0, [x27, #16]
    171c:	52800002 	mov	w2, #0x0                   	// #0
    1720:	aa1903e0 	mov	x0, x25
    1724:	94000000 	bl	0 <of_get_named_gpio_flags>
    1728:	37f81100 	tbnz	w0, #31, 1948 <ar0330_probe+0x3e0>
    172c:	580072e1 	ldr	x1, 2588 <ar0330_probe+0x1020>
    1730:	d2800002 	mov	x2, #0x0                   	// #0
    1734:	b9001760 	str	w0, [x27, #20]
    1738:	aa1903e0 	mov	x0, x25
    173c:	94000000 	bl	0 <of_find_property>
    1740:	f100001f 	cmp	x0, #0x0
    1744:	58007261 	ldr	x1, 2590 <ar0330_probe+0x1028>
    1748:	1a9f07e0 	cset	w0, ne  // ne = any
    174c:	39014360 	strb	w0, [x27, #80]
    1750:	9100c362 	add	x2, x27, #0x30
    1754:	aa1903e0 	mov	x0, x25
    1758:	94000000 	bl	0 <of_property_read_string>
    175c:	350016e0 	cbnz	w0, 1a38 <ar0330_probe+0x4d0>
    1760:	58007201 	ldr	x1, 25a0 <ar0330_probe+0x1038>
    1764:	91010362 	add	x2, x27, #0x40
    1768:	aa1903e0 	mov	x0, x25
    176c:	94000000 	bl	0 <of_property_read_string>
    1770:	350016c0 	cbnz	w0, 1a48 <ar0330_probe+0x4e0>
    1774:	580071e1 	ldr	x1, 25b0 <ar0330_probe+0x1048>
    1778:	aa1903e0 	mov	x0, x25
    177c:	f90027ba 	str	x26, [x29, #72]
    1780:	d2800002 	mov	x2, #0x0                   	// #0
    1784:	f9002fbc 	str	x28, [x29, #88]
    1788:	9103627a 	add	x26, x19, #0xd8
    178c:	91026279 	add	x25, x19, #0x98
    1790:	9100e29c 	add	x28, x20, #0x38
    1794:	94000000 	bl	0 <of_find_property>
    1798:	f100001f 	cmp	x0, #0x0
    179c:	580070e0 	ldr	x0, 25b8 <ar0330_probe+0x1050>
    17a0:	1a9f07e2 	cset	w2, ne  // ne = any
    17a4:	f900ae7b 	str	x27, [x19, #344]
    17a8:	aa1403e1 	mov	x1, x20
    17ac:	39014762 	strb	w2, [x27, #81]
    17b0:	94000000 	bl	0 <printk>
    17b4:	910102e1 	add	x1, x23, #0x40
    17b8:	91186300 	add	x0, x24, #0x618
    17bc:	a9006a80 	stp	x0, x26, [x20]
    17c0:	528400c0 	mov	w0, #0x2006                	// #8198
    17c4:	a9010695 	stp	x21, x1, [x20, #16]
    17c8:	94000000 	bl	0 <camera_common_find_datafmt>
    17cc:	f9001280 	str	x0, [x20, #32]
    17d0:	528400c0 	mov	w0, #0x2006                	// #8198
    17d4:	94000000 	bl	0 <camera_common_find_datafmt>
    17d8:	aa0003e1 	mov	x1, x0
    17dc:	58006f20 	ldr	x0, 25c0 <ar0330_probe+0x1058>
    17e0:	94000000 	bl	0 <printk>
    17e4:	f9001a99 	str	x25, [x20, #48]
    17e8:	91080280 	add	x0, x20, #0x200
    17ec:	52800061 	mov	w1, #0x3                   	// #3
    17f0:	b9020a81 	str	w1, [x20, #520]
    17f4:	d280f001 	mov	x1, #0x780                 	// #1920
    17f8:	f9010293 	str	x19, [x20, #512]
    17fc:	9105a262 	add	x2, x19, #0x168
    1800:	f2c08701 	movk	x1, #0x438, lsl #32
    1804:	f900ba82 	str	x2, [x20, #368]
    1808:	f8024001 	stur	x1, [x0, #36]
    180c:	d286c001 	mov	x1, #0x3600                	// #13824
    1810:	f2a02dc1 	movk	x1, #0x16e, lsl #16
    1814:	d2800022 	mov	x2, #0x1                   	// #1
    1818:	f2c0f001 	movk	x1, #0x780, lsl #32
    181c:	f801c002 	stur	x2, [x0, #28]
    1820:	f802c001 	stur	x1, [x0, #44]
    1824:	52808700 	mov	w0, #0x438                 	// #1080
    1828:	b9023680 	str	w0, [x20, #564]
    182c:	b941e281 	ldr	w1, [x20, #480]
    1830:	58006cc0 	ldr	x0, 25c8 <ar0330_probe+0x1060>
    1834:	94000000 	bl	0 <printk>
    1838:	f940ee81 	ldr	x1, [x20, #472]
    183c:	58006ca0 	ldr	x0, 25d0 <ar0330_probe+0x1068>
    1840:	94000000 	bl	0 <printk>
    1844:	f900aa76 	str	x22, [x19, #336]
    1848:	58006c80 	ldr	x0, 25d8 <ar0330_probe+0x1070>
    184c:	aa1c03e1 	mov	x1, x28
    1850:	f900b274 	str	x20, [x19, #352]
    1854:	94000000 	bl	0 <printk>
    1858:	f9002e7c 	str	x28, [x19, #88]
    185c:	f940b260 	ldr	x0, [x19, #352]
    1860:	f9008395 	str	x21, [x28, #256]
    1864:	580064a1 	ldr	x1, 24f8 <ar0330_probe+0xf90>
    1868:	f9000815 	str	x21, [x0, #16]
    186c:	a9557260 	ldp	x0, x28, [x19, #336]
    1870:	91008000 	add	x0, x0, #0x20
    1874:	f940039b 	ldr	x27, [x28]
    1878:	f100037f 	cmp	x27, #0x0
    187c:	9a9b003b 	csel	x27, x1, x27, eq  // eq = none
    1880:	aa1b03e1 	mov	x1, x27
    1884:	94000000 	bl	0 <devm_clk_get>
    1888:	f9001320 	str	x0, [x25, #32]
    188c:	b140041f 	cmn	x0, #0x1, lsl #12
    1890:	54001108 	b.hi	1ab0 <ar0330_probe+0x548>  // b.pmore
    1894:	f940ae60 	ldr	x0, [x19, #344]
    1898:	f940041b 	ldr	x27, [x0, #8]
    189c:	b400015b 	cbz	x27, 18c4 <ar0330_probe+0x35c>
    18a0:	f940aa60 	ldr	x0, [x19, #336]
    18a4:	aa1b03e1 	mov	x1, x27
    18a8:	91008000 	add	x0, x0, #0x20
    18ac:	94000000 	bl	0 <devm_clk_get>
    18b0:	aa0003e1 	mov	x1, x0
    18b4:	b140041f 	cmn	x0, #0x1, lsl #12
    18b8:	54001608 	b.hi	1b78 <ar0330_probe+0x610>  // b.pmore
    18bc:	f9401320 	ldr	x0, [x25, #32]
    18c0:	94000000 	bl	0 <clk_set_parent>
    18c4:	f9401b82 	ldr	x2, [x28, #48]
    18c8:	91028261 	add	x1, x19, #0xa0
    18cc:	f940aa60 	ldr	x0, [x19, #336]
    18d0:	91008000 	add	x0, x0, #0x20
    18d4:	94000000 	bl	0 <camera_common_regulator_get>
    18d8:	2a0003fb 	mov	w27, w0
    18dc:	f9402382 	ldr	x2, [x28, #64]
    18e0:	9102a261 	add	x1, x19, #0xa8
    18e4:	f940aa60 	ldr	x0, [x19, #336]
    18e8:	91008000 	add	x0, x0, #0x20
    18ec:	94000000 	bl	0 <camera_common_regulator_get>
    18f0:	2a00037b 	orr	w27, w27, w0
    18f4:	350000bb 	cbnz	w27, 1908 <ar0330_probe+0x3a0>
    18f8:	b9401780 	ldr	w0, [x28, #20]
    18fc:	b9002f20 	str	w0, [x25, #44]
    1900:	b9401380 	ldr	w0, [x28, #16]
    1904:	b9002b20 	str	w0, [x25, #40]
    1908:	39414381 	ldrb	w1, [x28, #80]
    190c:	b9402b20 	ldr	w0, [x25, #40]
    1910:	34000b81 	cbz	w1, 1a80 <ar0330_probe+0x518>
    1914:	f940aa62 	ldr	x2, [x19, #336]
    1918:	2a0003e1 	mov	w1, w0
    191c:	91008040 	add	x0, x2, #0x20
    1920:	94000000 	bl	0 <cam_gpio_register>
    1924:	2a0003fb 	mov	w27, w0
    1928:	35001020 	cbnz	w0, 1b2c <ar0330_probe+0x5c4>
    192c:	3900d33f 	strb	wzr, [x25, #52]
    1930:	34000cfb 	cbz	w27, 1acc <ar0330_probe+0x564>
    1934:	a941d7b4 	ldp	x20, x21, [x29, #24]
    1938:	a94363b7 	ldp	x23, x24, [x29, #48]
    193c:	a9446bb9 	ldp	x25, x26, [x29, #64]
    1940:	f9402fbc 	ldr	x28, [x29, #88]
    1944:	1400000c 	b	1974 <ar0330_probe+0x40c>
    1948:	d503201f 	nop
    194c:	52800000 	mov	w0, #0x0                   	// #0
    1950:	17ffff77 	b	172c <ar0330_probe+0x1c4>
    1954:	f900ae7f 	str	xzr, [x19, #344]
    1958:	58006441 	ldr	x1, 25e0 <ar0330_probe+0x1078>
    195c:	aa1503e0 	mov	x0, x21
    1960:	128001bb 	mov	w27, #0xfffffff2            	// #-14
    1964:	94000000 	bl	0 <dev_err>
    1968:	f94023b9 	ldr	x25, [x29, #64]
    196c:	a941d7b4 	ldp	x20, x21, [x29, #24]
    1970:	a94363b7 	ldp	x23, x24, [x29, #48]
    1974:	2a1b03e0 	mov	w0, w27
    1978:	f9400bf3 	ldr	x19, [sp, #16]
    197c:	f94017f6 	ldr	x22, [sp, #40]
    1980:	f9402bfb 	ldr	x27, [sp, #80]
    1984:	a8cc7bfd 	ldp	x29, x30, [sp], #192
    1988:	d65f03c0 	ret
    198c:	58005c21 	ldr	x1, 2510 <ar0330_probe+0xfa8>
    1990:	aa0003e2 	mov	x2, x0
    1994:	1280025b 	mov	w27, #0xffffffed            	// #-19
    1998:	aa1503e0 	mov	x0, x21
    199c:	94000000 	bl	0 <dev_err>
    19a0:	2a1b03e0 	mov	w0, w27
    19a4:	f9401bb7 	ldr	x23, [x29, #48]
    19a8:	a941d7b4 	ldp	x20, x21, [x29, #24]
    19ac:	f9400bf3 	ldr	x19, [sp, #16]
    19b0:	f94017f6 	ldr	x22, [sp, #40]
    19b4:	f9402bfb 	ldr	x27, [sp, #80]
    19b8:	a8cc7bfd 	ldp	x29, x30, [sp], #192
    19bc:	d65f03c0 	ret
    19c0:	58005b01 	ldr	x1, 2520 <ar0330_probe+0xfb8>
    19c4:	17fffff3 	b	1990 <ar0330_probe+0x428>
    19c8:	58005bc1 	ldr	x1, 2540 <ar0330_probe+0xfd8>
    19cc:	aa0003e2 	mov	x2, x0
    19d0:	1280025b 	mov	w27, #0xffffffed            	// #-19
    19d4:	aa1503e0 	mov	x0, x21
    19d8:	94000000 	bl	0 <dev_err>
    19dc:	f94023b9 	ldr	x25, [x29, #64]
    19e0:	a941d7b4 	ldp	x20, x21, [x29, #24]
    19e4:	a94363b7 	ldp	x23, x24, [x29, #48]
    19e8:	17ffffe3 	b	1974 <ar0330_probe+0x40c>
    19ec:	58005c62 	ldr	x2, 2578 <ar0330_probe+0x1010>
    19f0:	aa1503e1 	mov	x1, x21
    19f4:	58005c60 	ldr	x0, 2580 <ar0330_probe+0x1018>
    19f8:	91040000 	add	x0, x0, #0x100
    19fc:	94000000 	bl	0 <__dynamic_dev_dbg>
    1a00:	52800000 	mov	w0, #0x0                   	// #0
    1a04:	17ffff4a 	b	172c <ar0330_probe+0x1c4>
    1a08:	58005a81 	ldr	x1, 2558 <ar0330_probe+0xff0>
    1a0c:	aa1503e0 	mov	x0, x21
    1a10:	94000000 	bl	0 <dev_err>
    1a14:	aa1b03e1 	mov	x1, x27
    1a18:	aa1503e0 	mov	x0, x21
    1a1c:	94000000 	bl	0 <devm_kfree>
    1a20:	f900ae7f 	str	xzr, [x19, #344]
    1a24:	17ffffcd 	b	1958 <ar0330_probe+0x3f0>
    1a28:	58005a01 	ldr	x1, 2568 <ar0330_probe+0x1000>
    1a2c:	aa1503e0 	mov	x0, x21
    1a30:	94000000 	bl	0 <dev_err>
    1a34:	17fffff8 	b	1a14 <ar0330_probe+0x4ac>
    1a38:	58005b01 	ldr	x1, 2598 <ar0330_probe+0x1030>
    1a3c:	aa1503e0 	mov	x0, x21
    1a40:	94000000 	bl	0 <dev_err>
    1a44:	17fffff4 	b	1a14 <ar0330_probe+0x4ac>
    1a48:	58005b01 	ldr	x1, 25a8 <ar0330_probe+0x1040>
    1a4c:	aa1503e0 	mov	x0, x21
    1a50:	94000000 	bl	0 <dev_err>
    1a54:	17fffff0 	b	1a14 <ar0330_probe+0x4ac>
    1a58:	1280017b 	mov	w27, #0xfffffff4            	// #-12
    1a5c:	a941d7b4 	ldp	x20, x21, [x29, #24]
    1a60:	17ffffc5 	b	1974 <ar0330_probe+0x40c>
    1a64:	58005761 	ldr	x1, 2550 <ar0330_probe+0xfe8>
    1a68:	aa1503e0 	mov	x0, x21
    1a6c:	94000000 	bl	0 <dev_err>
    1a70:	f900ae7f 	str	xzr, [x19, #344]
    1a74:	17ffffb9 	b	1958 <ar0330_probe+0x3f0>
    1a78:	128002bb 	mov	w27, #0xffffffea            	// #-22
    1a7c:	17ffffbe 	b	1974 <ar0330_probe+0x40c>
    1a80:	58005c01 	ldr	x1, 2600 <ar0330_probe+0x1098>
    1a84:	94000000 	bl	0 <gpio_request>
    1a88:	2a0003e4 	mov	w4, w0
    1a8c:	37f80720 	tbnz	w0, #31, 1b70 <ar0330_probe+0x608>
    1a90:	58005c01 	ldr	x1, 2610 <ar0330_probe+0x10a8>
    1a94:	b9402f20 	ldr	w0, [x25, #44]
    1a98:	94000000 	bl	0 <gpio_request>
    1a9c:	2a0003e4 	mov	w4, w0
    1aa0:	36fff460 	tbz	w0, #31, 192c <ar0330_probe+0x3c4>
    1aa4:	d503201f 	nop
    1aa8:	3900d33f 	strb	wzr, [x25, #52]
    1aac:	17ffffa1 	b	1930 <ar0330_probe+0x3c8>
    1ab0:	580059c1 	ldr	x1, 25e8 <ar0330_probe+0x1080>
    1ab4:	aa1b03e2 	mov	x2, x27
    1ab8:	f940aa60 	ldr	x0, [x19, #336]
    1abc:	91008000 	add	x0, x0, #0x20
    1ac0:	94000000 	bl	0 <dev_err>
    1ac4:	b940233b 	ldr	w27, [x25, #32]
    1ac8:	17ffff9a 	b	1930 <ar0330_probe+0x3c8>
    1acc:	58005aa0 	ldr	x0, 2620 <ar0330_probe+0x10b8>
    1ad0:	94000000 	bl	0 <printk>
    1ad4:	58005aa1 	ldr	x1, 2628 <ar0330_probe+0x10c0>
    1ad8:	aa1403e0 	mov	x0, x20
    1adc:	94000000 	bl	0 <camera_common_initialize>
    1ae0:	2a0003fb 	mov	w27, w0
    1ae4:	b941e281 	ldr	w1, [x20, #480]
    1ae8:	58005700 	ldr	x0, 25c8 <ar0330_probe+0x1060>
    1aec:	94000000 	bl	0 <printk>
    1af0:	f940ee81 	ldr	x1, [x20, #472]
    1af4:	580056e0 	ldr	x0, 25d0 <ar0330_probe+0x1068>
    1af8:	94000000 	bl	0 <printk>
    1afc:	580059a0 	ldr	x0, 2630 <ar0330_probe+0x10c8>
    1b00:	91060281 	add	x1, x20, #0x180
    1b04:	94000000 	bl	0 <printk>
    1b08:	3400045b 	cbz	w27, 1b90 <ar0330_probe+0x628>
    1b0c:	58005961 	ldr	x1, 2638 <ar0330_probe+0x10d0>
    1b10:	aa1503e0 	mov	x0, x21
    1b14:	94000000 	bl	0 <dev_err>
    1b18:	a941d7b4 	ldp	x20, x21, [x29, #24]
    1b1c:	a94363b7 	ldp	x23, x24, [x29, #48]
    1b20:	a9446bb9 	ldp	x25, x26, [x29, #64]
    1b24:	f9402fbc 	ldr	x28, [x29, #88]
    1b28:	17ffff93 	b	1974 <ar0330_probe+0x40c>
    1b2c:	58005661 	ldr	x1, 25f8 <ar0330_probe+0x1090>
    1b30:	910f82e2 	add	x2, x23, #0x3e0
    1b34:	b9402b23 	ldr	w3, [x25, #40]
    1b38:	f940aa60 	ldr	x0, [x19, #336]
    1b3c:	91008000 	add	x0, x0, #0x20
    1b40:	94000000 	bl	0 <dev_err>
    1b44:	3900d33f 	strb	wzr, [x25, #52]
    1b48:	17ffff7a 	b	1930 <ar0330_probe+0x3c8>
    1b4c:	58005662 	ldr	x2, 2618 <ar0330_probe+0x10b0>
    1b50:	910f82e3 	add	x3, x23, #0x3e0
    1b54:	58005160 	ldr	x0, 2580 <ar0330_probe+0x1018>
    1b58:	f940aa61 	ldr	x1, [x19, #336]
    1b5c:	91060000 	add	x0, x0, #0x180
    1b60:	91008021 	add	x1, x1, #0x20
    1b64:	94000000 	bl	0 <__dynamic_dev_dbg>
    1b68:	3900d33f 	strb	wzr, [x25, #52]
    1b6c:	17ffff71 	b	1930 <ar0330_probe+0x3c8>
    1b70:	d503201f 	nop
    1b74:	17ffffc7 	b	1a90 <ar0330_probe+0x528>
    1b78:	580053c1 	ldr	x1, 25f0 <ar0330_probe+0x1088>
    1b7c:	aa1b03e2 	mov	x2, x27
    1b80:	f940aa60 	ldr	x0, [x19, #336]
    1b84:	91008000 	add	x0, x0, #0x20
    1b88:	94000000 	bl	0 <dev_err>
    1b8c:	17ffff4e 	b	18c4 <ar0330_probe+0x35c>
    1b90:	58005580 	ldr	x0, 2640 <ar0330_probe+0x10d8>
    1b94:	94000000 	bl	0 <printk>
    1b98:	aa1403e0 	mov	x0, x20
    1b9c:	97fffe0d 	bl	13d0 <ar0330_power_on>
    1ba0:	2a0003fb 	mov	w27, w0
    1ba4:	35ffec80 	cbnz	w0, 1934 <ar0330_probe+0x3cc>
    1ba8:	58005501 	ldr	x1, 2648 <ar0330_probe+0x10e0>
    1bac:	aa1503e0 	mov	x0, x21
    1bb0:	94000000 	bl	0 <dev_err>
    1bb4:	580054e0 	ldr	x0, 2650 <ar0330_probe+0x10e8>
    1bb8:	94000000 	bl	0 <printk>
    1bbc:	79012fbf 	strh	wzr, [x29, #150]
    1bc0:	794002c3 	ldrh	w3, [x22]
    1bc4:	52800041 	mov	w1, #0x2                   	// #2
    1bc8:	f9400ec0 	ldr	x0, [x22, #24]
    1bcc:	32000064 	orr	w4, w3, #0x1
    1bd0:	790147a3 	strh	w3, [x29, #162]
    1bd4:	91025ba3 	add	x3, x29, #0x96
    1bd8:	794006c2 	ldrh	w2, [x22, #2]
    1bdc:	790143a2 	strh	w2, [x29, #160]
    1be0:	79014ba1 	strh	w1, [x29, #164]
    1be4:	f90057a3 	str	x3, [x29, #168]
    1be8:	790163a2 	strh	w2, [x29, #176]
    1bec:	52800042 	mov	w2, #0x2                   	// #2
    1bf0:	790167a4 	strh	w4, [x29, #178]
    1bf4:	79016ba1 	strh	w1, [x29, #180]
    1bf8:	910283a1 	add	x1, x29, #0xa0
    1bfc:	f9005fa3 	str	x3, [x29, #184]
    1c00:	94000000 	bl	0 <i2c_transfer>
    1c04:	37f816e0 	tbnz	w0, #31, 1ee0 <ar0330_probe+0x978>
    1c08:	39425ba0 	ldrb	w0, [x29, #150]
    1c0c:	39425fa1 	ldrb	w1, [x29, #151]
    1c10:	2a002020 	orr	w0, w1, w0, lsl #8
    1c14:	79013ba0 	strh	w0, [x29, #156]
    1c18:	7941a261 	ldrh	w1, [x19, #208]
    1c1c:	f9410280 	ldr	x0, [x20, #512]
    1c20:	58005219 	ldr	x25, 2660 <ar0330_probe+0x10f8>
    1c24:	f9003fa0 	str	x0, [x29, #120]
    1c28:	91034260 	add	x0, x19, #0xd0
    1c2c:	f90047a0 	str	x0, [x29, #136]
    1c30:	aa1903e0 	mov	x0, x25
    1c34:	94000000 	bl	0 <printk>
    1c38:	f9403fa0 	ldr	x0, [x29, #120]
    1c3c:	52800001 	mov	w1, #0x0                   	// #0
    1c40:	f94047a2 	ldr	x2, [x29, #136]
    1c44:	f9400c00 	ldr	x0, [x0, #24]
    1c48:	94000000 	bl	0 <regmap_read>
    1c4c:	2a0003fc 	mov	w28, w0
    1c50:	7941a261 	ldrh	w1, [x19, #208]
    1c54:	580050a0 	ldr	x0, 2668 <ar0330_probe+0x1100>
    1c58:	b90087bc 	str	w28, [x29, #132]
    1c5c:	94000000 	bl	0 <printk>
    1c60:	3500115c 	cbnz	w28, 1e88 <ar0330_probe+0x920>
    1c64:	b9409fa1 	ldr	w1, [x29, #156]
    1c68:	58005a5b 	ldr	x27, 27b0 <ar0330_probe+0x1248>
    1c6c:	aa1b03e0 	mov	x0, x27
    1c70:	94000000 	bl	0 <printk>
    1c74:	b940d261 	ldr	w1, [x19, #208]
    1c78:	aa1b03e0 	mov	x0, x27
    1c7c:	94000000 	bl	0 <printk>
    1c80:	58005a40 	ldr	x0, 27c8 <ar0330_probe+0x1260>
    1c84:	94000000 	bl	0 <printk>
    1c88:	58005a40 	ldr	x0, 27d0 <ar0330_probe+0x1268>
    1c8c:	b940d261 	ldr	w1, [x19, #208]
    1c90:	94000000 	bl	0 <printk>
    1c94:	b940d262 	ldr	w2, [x19, #208]
    1c98:	7109945f 	cmp	w2, #0x265
    1c9c:	54000240 	b.eq	1ce4 <ar0330_probe+0x77c>  // b.none
    1ca0:	58004ec1 	ldr	x1, 2678 <ar0330_probe+0x1110>
    1ca4:	aa1503e0 	mov	x0, x21
    1ca8:	128002bb 	mov	w27, #0xffffffea            	// #-22
    1cac:	94000000 	bl	0 <dev_err>
    1cb0:	f9402fbc 	ldr	x28, [x29, #88]
    1cb4:	a941d7b4 	ldp	x20, x21, [x29, #24]
    1cb8:	a94363b7 	ldp	x23, x24, [x29, #48]
    1cbc:	a9446bb9 	ldp	x25, x26, [x29, #64]
    1cc0:	17ffff2d 	b	1974 <ar0330_probe+0x40c>
    1cc4:	58004a22 	ldr	x2, 2608 <ar0330_probe+0x10a0>
    1cc8:	910f82e3 	add	x3, x23, #0x3e0
    1ccc:	f940aa61 	ldr	x1, [x19, #336]
    1cd0:	58004580 	ldr	x0, 2580 <ar0330_probe+0x1018>
    1cd4:	91008021 	add	x1, x1, #0x20
    1cd8:	91050000 	add	x0, x0, #0x140
    1cdc:	94000000 	bl	0 <__dynamic_dev_dbg>
    1ce0:	17ffff6c 	b	1a90 <ar0330_probe+0x528>
    1ce4:	910303a1 	add	x1, x29, #0xc0
    1ce8:	f9410280 	ldr	x0, [x20, #512]
    1cec:	aa0103e2 	mov	x2, x1
    1cf0:	f90047a0 	str	x0, [x29, #136]
    1cf4:	5280001b 	mov	w27, #0x0                   	// #0
    1cf8:	aa1903e0 	mov	x0, x25
    1cfc:	785d0c41 	ldrh	w1, [x2, #-48]!
    1d00:	f9003fa2 	str	x2, [x29, #120]
    1d04:	94000000 	bl	0 <printk>
    1d08:	f94047a0 	ldr	x0, [x29, #136]
    1d0c:	528c0041 	mov	w1, #0x6002                	// #24578
    1d10:	f9403fa2 	ldr	x2, [x29, #120]
    1d14:	f9400c00 	ldr	x0, [x0, #24]
    1d18:	94000000 	bl	0 <regmap_read>
    1d1c:	2a0003fc 	mov	w28, w0
    1d20:	794123a1 	ldrh	w1, [x29, #144]
    1d24:	58004a20 	ldr	x0, 2668 <ar0330_probe+0x1100>
    1d28:	94000000 	bl	0 <printk>
    1d2c:	35003d3c 	cbnz	w28, 24d0 <ar0330_probe+0xf68>
    1d30:	794123a1 	ldrh	w1, [x29, #144]
    1d34:	58004a60 	ldr	x0, 2680 <ar0330_probe+0x1118>
    1d38:	94000000 	bl	0 <printk>
    1d3c:	794123a1 	ldrh	w1, [x29, #144]
    1d40:	529fffe0 	mov	w0, #0xffff                	// #65535
    1d44:	6b00003f 	cmp	w1, w0
    1d48:	54003be0 	b.eq	24c4 <ar0330_probe+0xf5c>  // b.none
    1d4c:	580049e0 	ldr	x0, 2688 <ar0330_probe+0x1120>
    1d50:	94000000 	bl	0 <printk>
    1d54:	580049fb 	ldr	x27, 2690 <ar0330_probe+0x1128>
    1d58:	52801801 	mov	w1, #0xc0                  	// #192
    1d5c:	790127bf 	strh	wzr, [x29, #146]
    1d60:	79012bbf 	strh	wzr, [x29, #148]
    1d64:	d2806b02 	mov	x2, #0x358                 	// #856
    1d68:	f9402b60 	ldr	x0, [x27, #80]
    1d6c:	72a04801 	movk	w1, #0x240, lsl #16
    1d70:	79012fbf 	strh	wzr, [x29, #150]
    1d74:	94000000 	bl	0 <kmem_cache_alloc_trace>
    1d78:	f90047a0 	str	x0, [x29, #136]
    1d7c:	b40039c0 	cbz	x0, 24b4 <ar0330_probe+0xf4c>
    1d80:	f9402b60 	ldr	x0, [x27, #80]
    1d84:	52801801 	mov	w1, #0xc0                  	// #192
    1d88:	d2807e82 	mov	x2, #0x3f4                 	// #1012
    1d8c:	72a04801 	movk	w1, #0x240, lsl #16
    1d90:	94000000 	bl	0 <kmem_cache_alloc_trace>
    1d94:	aa0003fb 	mov	x27, x0
    1d98:	b4003820 	cbz	x0, 249c <ar0330_probe+0xf34>
    1d9c:	f9410280 	ldr	x0, [x20, #512]
    1da0:	12800002 	mov	w2, #0xffffffff            	// #-1
    1da4:	1281f5a1 	mov	w1, #0xfffff052            	// #-4014
    1da8:	97fffae0 	bl	928 <ar0330_write_16b_reg.isra.1>
    1dac:	580047a0 	ldr	x0, 26a0 <ar0330_probe+0x1138>
    1db0:	52800002 	mov	w2, #0x0                   	// #0
    1db4:	52800041 	mov	w1, #0x2                   	// #2
    1db8:	94000000 	bl	0 <printk>
    1dbc:	d2807e82 	mov	x2, #0x3f4                 	// #1012
    1dc0:	911a0301 	add	x1, x24, #0x680
    1dc4:	aa1b03e0 	mov	x0, x27
    1dc8:	94000000 	bl	0 <memcpy>
    1dcc:	f9410280 	ldr	x0, [x20, #512]
    1dd0:	d2807e83 	mov	x3, #0x3f4                 	// #1012
    1dd4:	aa1b03e2 	mov	x2, x27
    1dd8:	128fffe1 	mov	w1, #0xffff8000            	// #-32768
    1ddc:	94000000 	bl	0 <ar0330_read_8b_reg>
    1de0:	37f83560 	tbnz	w0, #31, 248c <ar0330_probe+0xf24>
    1de4:	f9410280 	ldr	x0, [x20, #512]
    1de8:	52800042 	mov	w2, #0x2                   	// #2
    1dec:	528c0041 	mov	w1, #0x6002                	// #24578
    1df0:	97ffface 	bl	928 <ar0330_write_16b_reg.isra.1>
    1df4:	52800020 	mov	w0, #0x1                   	// #1
    1df8:	94000000 	bl	0 <msleep>
    1dfc:	d503201f 	nop
    1e00:	910303a1 	add	x1, x29, #0xc0
    1e04:	f9410280 	ldr	x0, [x20, #512]
    1e08:	aa0103e2 	mov	x2, x1
    1e0c:	b9007bbf 	str	wzr, [x29, #120]
    1e10:	785d2c41 	ldrh	w1, [x2, #-46]!
    1e14:	a90683a2 	stp	x2, x0, [x29, #104]
    1e18:	aa1903e0 	mov	x0, x25
    1e1c:	94000000 	bl	0 <printk>
    1e20:	a94683a2 	ldp	x2, x0, [x29, #104]
    1e24:	529e0a41 	mov	w1, #0xf052                	// #61522
    1e28:	f9400c00 	ldr	x0, [x0, #24]
    1e2c:	94000000 	bl	0 <regmap_read>
    1e30:	2a0003fc 	mov	w28, w0
    1e34:	794127a1 	ldrh	w1, [x29, #146]
    1e38:	58004180 	ldr	x0, 2668 <ar0330_probe+0x1100>
    1e3c:	94000000 	bl	0 <printk>
    1e40:	35000dbc 	cbnz	w28, 1ff4 <ar0330_probe+0xa8c>
    1e44:	794127a1 	ldrh	w1, [x29, #146]
    1e48:	7108583f 	cmp	w1, #0x216
    1e4c:	54000540 	b.eq	1ef4 <ar0330_probe+0x98c>  // b.none
    1e50:	58004340 	ldr	x0, 26b8 <ar0330_probe+0x1150>
    1e54:	94000000 	bl	0 <printk>
    1e58:	f94047a0 	ldr	x0, [x29, #136]
    1e5c:	94000000 	bl	0 <kfree>
    1e60:	aa1b03e0 	mov	x0, x27
    1e64:	94000000 	bl	0 <kfree>
    1e68:	580043c0 	ldr	x0, 26e0 <ar0330_probe+0x1178>
    1e6c:	1280009b 	mov	w27, #0xfffffffb            	// #-5
    1e70:	94000000 	bl	0 <printk>
    1e74:	f9402fbc 	ldr	x28, [x29, #88]
    1e78:	a941d7b4 	ldp	x20, x21, [x29, #24]
    1e7c:	a94363b7 	ldp	x23, x24, [x29, #48]
    1e80:	a9446bb9 	ldp	x25, x26, [x29, #64]
    1e84:	17fffebc 	b	1974 <ar0330_probe+0x40c>
    1e88:	7941a263 	ldrh	w3, [x19, #208]
    1e8c:	1100077b 	add	w27, w27, #0x1
    1e90:	58004a41 	ldr	x1, 27d8 <ar0330_probe+0x1270>
    1e94:	2a1b03e4 	mov	w4, w27
    1e98:	58003ec0 	ldr	x0, 2670 <ar0330_probe+0x1108>
    1e9c:	52800002 	mov	w2, #0x0                   	// #0
    1ea0:	94000000 	bl	0 <printk>
    1ea4:	7100177f 	cmp	w27, #0x5
    1ea8:	54ffec81 	b.ne	1c38 <ar0330_probe+0x6d0>  // b.any
    1eac:	b9409fa1 	ldr	w1, [x29, #156]
    1eb0:	1280025b 	mov	w27, #0xffffffed            	// #-19
    1eb4:	580047f4 	ldr	x20, 27b0 <ar0330_probe+0x1248>
    1eb8:	aa1403e0 	mov	x0, x20
    1ebc:	94000000 	bl	0 <printk>
    1ec0:	b940d261 	ldr	w1, [x19, #208]
    1ec4:	aa1403e0 	mov	x0, x20
    1ec8:	94000000 	bl	0 <printk>
    1ecc:	b94087a1 	ldr	w1, [x29, #132]
    1ed0:	58004740 	ldr	x0, 27b8 <ar0330_probe+0x1250>
    1ed4:	94000000 	bl	0 <printk>
    1ed8:	58004741 	ldr	x1, 27c0 <ar0330_probe+0x1258>
    1edc:	17ffff0d 	b	1b10 <ar0330_probe+0x5a8>
    1ee0:	58003bc1 	ldr	x1, 2658 <ar0330_probe+0x10f0>
    1ee4:	52800002 	mov	w2, #0x0                   	// #0
    1ee8:	aa1503e0 	mov	x0, x21
    1eec:	94000000 	bl	0 <dev_err>
    1ef0:	17ffff4a 	b	1c18 <ar0330_probe+0x6b0>
    1ef4:	58003e60 	ldr	x0, 26c0 <ar0330_probe+0x1158>
    1ef8:	910303bc 	add	x28, x29, #0xc0
    1efc:	94000000 	bl	0 <printk>
    1f00:	f9410280 	ldr	x0, [x20, #512]
    1f04:	12800002 	mov	w2, #0xffffffff            	// #-1
    1f08:	528c0041 	mov	w1, #0x6002                	// #24578
    1f0c:	97fffa87 	bl	928 <ar0330_write_16b_reg.isra.1>
    1f10:	52800020 	mov	w0, #0x1                   	// #1
    1f14:	94000000 	bl	0 <msleep>
    1f18:	785d4f81 	ldrh	w1, [x28, #-44]!
    1f1c:	f9410280 	ldr	x0, [x20, #512]
    1f20:	a90703bc 	stp	x28, x0, [x29, #112]
    1f24:	aa1903e0 	mov	x0, x25
    1f28:	94000000 	bl	0 <printk>
    1f2c:	52800005 	mov	w5, #0x0                   	// #0
    1f30:	a94703a2 	ldp	x2, x0, [x29, #112]
    1f34:	b9006ba5 	str	w5, [x29, #104]
    1f38:	528c0041 	mov	w1, #0x6002                	// #24578
    1f3c:	f9400c00 	ldr	x0, [x0, #24]
    1f40:	94000000 	bl	0 <regmap_read>
    1f44:	2a0003fc 	mov	w28, w0
    1f48:	79412ba1 	ldrh	w1, [x29, #148]
    1f4c:	580038e0 	ldr	x0, 2668 <ar0330_probe+0x1100>
    1f50:	94000000 	bl	0 <printk>
    1f54:	b9406ba5 	ldr	w5, [x29, #104]
    1f58:	350025dc 	cbnz	w28, 2410 <ar0330_probe+0xea8>
    1f5c:	79412ba1 	ldrh	w1, [x29, #148]
    1f60:	58003900 	ldr	x0, 2680 <ar0330_probe+0x1118>
    1f64:	94000000 	bl	0 <printk>
    1f68:	79412ba1 	ldrh	w1, [x29, #148]
    1f6c:	529fffe0 	mov	w0, #0xffff                	// #65535
    1f70:	6b00003f 	cmp	w1, w0
    1f74:	540021e1 	b.ne	23b0 <ar0330_probe+0xe48>  // b.any
    1f78:	f9410280 	ldr	x0, [x20, #512]
    1f7c:	52800001 	mov	w1, #0x0                   	// #0
    1f80:	f9003fa0 	str	x0, [x29, #120]
    1f84:	aa1903e0 	mov	x0, x25
    1f88:	790143bf 	strh	wzr, [x29, #160]
    1f8c:	94000000 	bl	0 <printk>
    1f90:	58003719 	ldr	x25, 2670 <ar0330_probe+0x1108>
    1f94:	f9403fa0 	ldr	x0, [x29, #120]
    1f98:	528000c1 	mov	w1, #0x6                   	// #6
    1f9c:	910283a2 	add	x2, x29, #0xa0
    1fa0:	f9400c00 	ldr	x0, [x0, #24]
    1fa4:	94000000 	bl	0 <regmap_read>
    1fa8:	2a0003fc 	mov	w28, w0
    1fac:	794143a1 	ldrh	w1, [x29, #160]
    1fb0:	580035c0 	ldr	x0, 2668 <ar0330_probe+0x1100>
    1fb4:	94000000 	bl	0 <printk>
    1fb8:	3500175c 	cbnz	w28, 22a0 <ar0330_probe+0xd38>
    1fbc:	794143a0 	ldrh	w0, [x29, #160]
    1fc0:	350016a0 	cbnz	w0, 2294 <ar0330_probe+0xd2c>
    1fc4:	f94047a0 	ldr	x0, [x29, #136]
    1fc8:	94000000 	bl	0 <kfree>
    1fcc:	aa1b03e0 	mov	x0, x27
    1fd0:	94000000 	bl	0 <kfree>
    1fd4:	b9421280 	ldr	w0, [x20, #528]
    1fd8:	7100081f 	cmp	w0, #0x2
    1fdc:	540014e0 	b.eq	2278 <ar0330_probe+0xd10>  // b.none
    1fe0:	7100101f 	cmp	w0, #0x4
    1fe4:	54000220 	b.eq	2028 <ar0330_probe+0xac0>  // b.none
    1fe8:	58003a00 	ldr	x0, 2728 <ar0330_probe+0x11c0>
    1fec:	128002bb 	mov	w27, #0xffffffea            	// #-22
    1ff0:	17ffffa0 	b	1e70 <ar0330_probe+0x908>
    1ff4:	b9407ba0 	ldr	w0, [x29, #120]
    1ff8:	529e0a42 	mov	w2, #0xf052                	// #61522
    1ffc:	794127a3 	ldrh	w3, [x29, #146]
    2000:	11000400 	add	w0, w0, #0x1
    2004:	58003ea1 	ldr	x1, 27d8 <ar0330_probe+0x1270>
    2008:	2a0003fc 	mov	w28, w0
    200c:	2a0003e4 	mov	w4, w0
    2010:	58003300 	ldr	x0, 2670 <ar0330_probe+0x1108>
    2014:	b9007bbc 	str	w28, [x29, #120]
    2018:	94000000 	bl	0 <printk>
    201c:	71002f9f 	cmp	w28, #0xb
    2020:	54fff001 	b.ne	1e20 <ar0330_probe+0x8b8>  // b.any
    2024:	17ffff88 	b	1e44 <ar0330_probe+0x8dc>
    2028:	f9410280 	ldr	x0, [x20, #512]
    202c:	52800282 	mov	w2, #0x14                  	// #20
    2030:	52840601 	mov	w1, #0x2030                	// #8240
    2034:	97fffa3d 	bl	928 <ar0330_write_16b_reg.isra.1>
    2038:	58003600 	ldr	x0, 26f8 <ar0330_probe+0x1190>
    203c:	94000000 	bl	0 <printk>
    2040:	f9410280 	ldr	x0, [x20, #512]
    2044:	52800602 	mov	w2, #0x30                  	// #48
    2048:	52840241 	mov	w1, #0x2012                	// #8210
    204c:	97fffa37 	bl	928 <ar0330_write_16b_reg.isra.1>
    2050:	f9410280 	ldr	x0, [x20, #512]
    2054:	52800002 	mov	w2, #0x0                   	// #0
    2058:	528a0b01 	mov	w1, #0x5058                	// #20568
    205c:	97fffa33 	bl	928 <ar0330_write_16b_reg.isra.1>
    2060:	f9410280 	ldr	x0, [x20, #512]
    2064:	528010c2 	mov	w2, #0x86                  	// #134
    2068:	52840201 	mov	w1, #0x2010                	// #8208
    206c:	97fffa2f 	bl	928 <ar0330_write_16b_reg.isra.1>
    2070:	58003480 	ldr	x0, 2700 <ar0330_probe+0x1198>
    2074:	94000000 	bl	0 <printk>
    2078:	f9402e60 	ldr	x0, [x19, #88]
    207c:	911a6302 	add	x2, x24, #0x698
    2080:	aa1603e1 	mov	x1, x22
    2084:	94000000 	bl	0 <v4l2_i2c_subdev_init>
    2088:	58003400 	ldr	x0, 2708 <ar0330_probe+0x11a0>
    208c:	94000000 	bl	0 <printk>
    2090:	58003400 	ldr	x0, 2710 <ar0330_probe+0x11a8>
    2094:	94000000 	bl	0 <printk>
    2098:	b9000e7f 	str	wzr, [x19, #12]
    209c:	395b6301 	ldrb	w1, [x24, #1752]
    20a0:	580033c0 	ldr	x0, 2718 <ar0330_probe+0x11b0>
    20a4:	29050661 	stp	w1, w1, [x19, #40]
    20a8:	29060661 	stp	w1, w1, [x19, #48]
    20ac:	29070661 	stp	w1, w1, [x19, #56]
    20b0:	29080661 	stp	w1, w1, [x19, #64]
    20b4:	29090661 	stp	w1, w1, [x19, #72]
    20b8:	290a0661 	stp	w1, w1, [x19, #80]
    20bc:	94000000 	bl	0 <printk>
    20c0:	58003300 	ldr	x0, 2720 <ar0330_probe+0x11b8>
    20c4:	94000000 	bl	0 <printk>
    20c8:	f940aa74 	ldr	x20, [x19, #336]
    20cc:	d503201f 	nop
    20d0:	d2800003 	mov	x3, #0x0                   	// #0
    20d4:	d2800002 	mov	x2, #0x0                   	// #0
    20d8:	52800061 	mov	w1, #0x3                   	// #3
    20dc:	aa1a03e0 	mov	x0, x26
    20e0:	94000000 	bl	0 <v4l2_ctrl_handler_init_class>
    20e4:	580032b6 	ldr	x22, 2738 <ar0330_probe+0x11d0>
    20e8:	f9402e60 	ldr	x0, [x19, #88]
    20ec:	52812002 	mov	w2, #0x900                 	// #2304
    20f0:	395b6306 	ldrb	w6, [x24, #1752]
    20f4:	9110a2e1 	add	x1, x23, #0x428
    20f8:	395b6705 	ldrb	w5, [x24, #1753]
    20fc:	72a01302 	movk	w2, #0x98, lsl #16
    2100:	3951f304 	ldrb	w4, [x24, #1148]
    2104:	394002c3 	ldrb	w3, [x22]
    2108:	f9005c1a 	str	x26, [x0, #184]
    210c:	aa1a03e0 	mov	x0, x26
    2110:	94000000 	bl	0 <v4l2_ctrl_new_std>
    2114:	f900b660 	str	x0, [x19, #360]
    2118:	b9414e61 	ldr	w1, [x19, #332]
    211c:	340000e1 	cbz	w1, 2138 <ar0330_probe+0xbd0>
    2120:	58003104 	ldr	x4, 2740 <ar0330_probe+0x11d8>
    2124:	528080a3 	mov	w3, #0x405                 	// #1029
    2128:	58003101 	ldr	x1, 2748 <ar0330_probe+0x11e0>
    212c:	911042e2 	add	x2, x23, #0x410
    2130:	58003100 	ldr	x0, 2750 <ar0330_probe+0x11e8>
    2134:	94000000 	bl	0 <printk>
    2138:	395b6306 	ldrb	w6, [x24, #1752]
    213c:	52812022 	mov	w2, #0x901                 	// #2305
    2140:	395b6705 	ldrb	w5, [x24, #1753]
    2144:	9110a2e1 	add	x1, x23, #0x428
    2148:	3951f304 	ldrb	w4, [x24, #1148]
    214c:	72a01302 	movk	w2, #0x98, lsl #16
    2150:	394002c3 	ldrb	w3, [x22]
    2154:	aa1a03e0 	mov	x0, x26
    2158:	94000000 	bl	0 <v4l2_ctrl_new_std>
    215c:	f900ba60 	str	x0, [x19, #368]
    2160:	b9414e61 	ldr	w1, [x19, #332]
    2164:	340000e1 	cbz	w1, 2180 <ar0330_probe+0xc18>
    2168:	58002f84 	ldr	x4, 2758 <ar0330_probe+0x11f0>
    216c:	528080c3 	mov	w3, #0x406                 	// #1030
    2170:	58002ec1 	ldr	x1, 2748 <ar0330_probe+0x11e0>
    2174:	911042e2 	add	x2, x23, #0x410
    2178:	58002ec0 	ldr	x0, 2750 <ar0330_probe+0x11e8>
    217c:	94000000 	bl	0 <printk>
    2180:	395b6306 	ldrb	w6, [x24, #1752]
    2184:	52812042 	mov	w2, #0x902                 	// #2306
    2188:	395b6705 	ldrb	w5, [x24, #1753]
    218c:	9110a2e1 	add	x1, x23, #0x428
    2190:	3951f304 	ldrb	w4, [x24, #1148]
    2194:	72a01302 	movk	w2, #0x98, lsl #16
    2198:	394002c3 	ldrb	w3, [x22]
    219c:	aa1a03e0 	mov	x0, x26
    21a0:	94000000 	bl	0 <v4l2_ctrl_new_std>
    21a4:	f900be60 	str	x0, [x19, #376]
    21a8:	b9414e61 	ldr	w1, [x19, #332]
    21ac:	340000e1 	cbz	w1, 21c8 <ar0330_probe+0xc60>
    21b0:	58002d84 	ldr	x4, 2760 <ar0330_probe+0x11f8>
    21b4:	528080e3 	mov	w3, #0x407                 	// #1031
    21b8:	58002c81 	ldr	x1, 2748 <ar0330_probe+0x11e0>
    21bc:	911042e2 	add	x2, x23, #0x410
    21c0:	58002c80 	ldr	x0, 2750 <ar0330_probe+0x11e8>
    21c4:	94000000 	bl	0 <printk>
    21c8:	f9402e60 	ldr	x0, [x19, #88]
    21cc:	52800061 	mov	w1, #0x3                   	// #3
    21d0:	b9000261 	str	w1, [x19]
    21d4:	f9005c1a 	str	x26, [x0, #184]
    21d8:	b9414e62 	ldr	w2, [x19, #332]
    21dc:	34000c62 	cbz	w2, 2368 <ar0330_probe+0xe00>
    21e0:	58002c41 	ldr	x1, 2768 <ar0330_probe+0x1200>
    21e4:	91008280 	add	x0, x20, #0x20
    21e8:	94000000 	bl	0 <dev_err>
    21ec:	b9414e7b 	ldr	w27, [x19, #332]
    21f0:	aa1a03e0 	mov	x0, x26
    21f4:	94000000 	bl	0 <v4l2_ctrl_handler_free>
    21f8:	58002bc0 	ldr	x0, 2770 <ar0330_probe+0x1208>
    21fc:	94000000 	bl	0 <printk>
    2200:	35ffb9bb 	cbnz	w27, 1934 <ar0330_probe+0x3cc>
    2204:	f9402e60 	ldr	x0, [x19, #88]
    2208:	911102e1 	add	x1, x23, #0x440
    220c:	d2800046 	mov	x6, #0x2                   	// #2
    2210:	911182f7 	add	x23, x23, #0x460
    2214:	52800024 	mov	w4, #0x1                   	// #1
    2218:	91018262 	add	x2, x19, #0x60
    221c:	f9005801 	str	x1, [x0, #176]
    2220:	2a0403e3 	mov	w3, w4
    2224:	52800021 	mov	w1, #0x1                   	// #1
    2228:	f9402e65 	ldr	x5, [x19, #88]
    222c:	b9409ca0 	ldr	w0, [x5, #156]
    2230:	321e0400 	orr	w0, w0, #0xc
    2234:	b9009ca0 	str	w0, [x5, #156]
    2238:	f9004a66 	str	x6, [x19, #144]
    223c:	f9402e60 	ldr	x0, [x19, #88]
    2240:	f9003017 	str	x23, [x0, #96]
    2244:	f9402e60 	ldr	x0, [x19, #88]
    2248:	94000000 	bl	0 <tegra_media_entity_init>
    224c:	2a0003fb 	mov	w27, w0
    2250:	36f80420 	tbz	w0, #31, 22d4 <ar0330_probe+0xd6c>
    2254:	58002961 	ldr	x1, 2780 <ar0330_probe+0x1218>
    2258:	17fffe2e 	b	1b10 <ar0330_probe+0x5a8>
    225c:	580026a2 	ldr	x2, 2730 <ar0330_probe+0x11c8>
    2260:	911042e3 	add	x3, x23, #0x410
    2264:	580018e0 	ldr	x0, 2580 <ar0330_probe+0x1018>
    2268:	91008281 	add	x1, x20, #0x20
    226c:	91080000 	add	x0, x0, #0x200
    2270:	94000000 	bl	0 <__dynamic_dev_dbg>
    2274:	17ffff97 	b	20d0 <ar0330_probe+0xb68>
    2278:	f9410280 	ldr	x0, [x20, #512]
    227c:	52800242 	mov	w2, #0x12                  	// #18
    2280:	52840601 	mov	w1, #0x2030                	// #8240
    2284:	97fff9a9 	bl	928 <ar0330_write_16b_reg.isra.1>
    2288:	58002340 	ldr	x0, 26f0 <ar0330_probe+0x1188>
    228c:	94000000 	bl	0 <printk>
    2290:	17ffff6c 	b	2040 <ar0330_probe+0xad8>
    2294:	58002220 	ldr	x0, 26d8 <ar0330_probe+0x1170>
    2298:	94000000 	bl	0 <printk>
    229c:	17fffeef 	b	1e58 <ar0330_probe+0x8f0>
    22a0:	794143a3 	ldrh	w3, [x29, #160]
    22a4:	528000c2 	mov	w2, #0x6                   	// #6
    22a8:	58002981 	ldr	x1, 27d8 <ar0330_probe+0x1270>
    22ac:	b94087a0 	ldr	w0, [x29, #132]
    22b0:	11000400 	add	w0, w0, #0x1
    22b4:	2a0003fc 	mov	w28, w0
    22b8:	2a0003e4 	mov	w4, w0
    22bc:	b90087bc 	str	w28, [x29, #132]
    22c0:	aa1903e0 	mov	x0, x25
    22c4:	94000000 	bl	0 <printk>
    22c8:	71002f9f 	cmp	w28, #0xb
    22cc:	54ffe641 	b.ne	1f94 <ar0330_probe+0xa2c>  // b.any
    22d0:	17ffff3b 	b	1fbc <ar0330_probe+0xa54>
    22d4:	aa1503e0 	mov	x0, x21
    22d8:	94000000 	bl	0 <sensor_common_parse_num_modes>
    22dc:	34000560 	cbz	w0, 2388 <ar0330_probe+0xe20>
    22e0:	f94052b4 	ldr	x20, [x21, #160]
    22e4:	d100e294 	sub	x20, x20, #0x38
    22e8:	f94052a1 	ldr	x1, [x21, #160]
    22ec:	580024e0 	ldr	x0, 2788 <ar0330_probe+0x1220>
    22f0:	94000000 	bl	0 <printk>
    22f4:	580019e0 	ldr	x0, 2630 <ar0330_probe+0x10c8>
    22f8:	91060281 	add	x1, x20, #0x180
    22fc:	94000000 	bl	0 <printk>
    2300:	58002480 	ldr	x0, 2790 <ar0330_probe+0x1228>
    2304:	aa1403e1 	mov	x1, x20
    2308:	94000000 	bl	0 <printk>
    230c:	b941e281 	ldr	w1, [x20, #480]
    2310:	580015c0 	ldr	x0, 25c8 <ar0330_probe+0x1060>
    2314:	94000000 	bl	0 <printk>
    2318:	f940ee81 	ldr	x1, [x20, #472]
    231c:	580015a0 	ldr	x0, 25d0 <ar0330_probe+0x1068>
    2320:	94000000 	bl	0 <printk>
    2324:	580023b4 	ldr	x20, 2798 <ar0330_probe+0x1230>
    2328:	aa1403e0 	mov	x0, x20
    232c:	94000000 	bl	0 <printk>
    2330:	aa1503e0 	mov	x0, x21
    2334:	94000000 	bl	0 <sensor_common_parse_num_modes>
    2338:	aa1403e0 	mov	x0, x20
    233c:	94000000 	bl	0 <printk>
    2340:	aa1503e0 	mov	x0, x21
    2344:	94000000 	bl	0 <sensor_common_parse_num_modes>
    2348:	f9402e60 	ldr	x0, [x19, #88]
    234c:	94000000 	bl	0 <v4l2_async_register_subdev>
    2350:	2a0003fb 	mov	w27, w0
    2354:	58002260 	ldr	x0, 27a0 <ar0330_probe+0x1238>
    2358:	94000000 	bl	0 <printk>
    235c:	35ffaedb 	cbnz	w27, 1934 <ar0330_probe+0x3cc>
    2360:	58002240 	ldr	x0, 27a8 <ar0330_probe+0x1240>
    2364:	17fffec3 	b	1e70 <ar0330_probe+0x908>
    2368:	aa1a03e0 	mov	x0, x26
    236c:	94000000 	bl	0 <v4l2_ctrl_handler_setup>
    2370:	2a0003fb 	mov	w27, w0
    2374:	350000e0 	cbnz	w0, 2390 <ar0330_probe+0xe28>
    2378:	58001fc0 	ldr	x0, 2770 <ar0330_probe+0x1208>
    237c:	b904831f 	str	wzr, [x24, #1152]
    2380:	94000000 	bl	0 <printk>
    2384:	17ffffa0 	b	2204 <ar0330_probe+0xc9c>
    2388:	d2800014 	mov	x20, #0x0                   	// #0
    238c:	17ffffd7 	b	22e8 <ar0330_probe+0xd80>
    2390:	58001f41 	ldr	x1, 2778 <ar0330_probe+0x1210>
    2394:	2a0003e2 	mov	w2, w0
    2398:	91008280 	add	x0, x20, #0x20
    239c:	94000000 	bl	0 <dev_err>
    23a0:	aa1a03e0 	mov	x0, x26
    23a4:	94000000 	bl	0 <v4l2_ctrl_handler_free>
    23a8:	58001e40 	ldr	x0, 2770 <ar0330_probe+0x1208>
    23ac:	17fffeb1 	b	1e70 <ar0330_probe+0x908>
    23b0:	580018c0 	ldr	x0, 26c8 <ar0330_probe+0x1160>
    23b4:	94000000 	bl	0 <printk>
    23b8:	79412fa1 	ldrh	w1, [x29, #150]
    23bc:	f9410280 	ldr	x0, [x20, #512]
    23c0:	f9003fa0 	str	x0, [x29, #120]
    23c4:	aa1903e0 	mov	x0, x25
    23c8:	94000000 	bl	0 <printk>
    23cc:	52800005 	mov	w5, #0x0                   	// #0
    23d0:	f9403fa0 	ldr	x0, [x29, #120]
    23d4:	91025ba2 	add	x2, x29, #0x96
    23d8:	b90073a5 	str	w5, [x29, #112]
    23dc:	528c0081 	mov	w1, #0x6004                	// #24580
    23e0:	f9400c00 	ldr	x0, [x0, #24]
    23e4:	94000000 	bl	0 <regmap_read>
    23e8:	2a0003fc 	mov	w28, w0
    23ec:	79412fa1 	ldrh	w1, [x29, #150]
    23f0:	580013c0 	ldr	x0, 2668 <ar0330_probe+0x1100>
    23f4:	94000000 	bl	0 <printk>
    23f8:	b94073a5 	ldr	w5, [x29, #112]
    23fc:	3500023c 	cbnz	w28, 2440 <ar0330_probe+0xed8>
    2400:	79412fa1 	ldrh	w1, [x29, #150]
    2404:	58001660 	ldr	x0, 26d0 <ar0330_probe+0x1168>
    2408:	94000000 	bl	0 <printk>
    240c:	17fffedb 	b	1f78 <ar0330_probe+0xa10>
    2410:	79412ba3 	ldrh	w3, [x29, #148]
    2414:	110004a5 	add	w5, w5, #0x1
    2418:	58001e01 	ldr	x1, 27d8 <ar0330_probe+0x1270>
    241c:	2a0503e4 	mov	w4, w5
    2420:	58001280 	ldr	x0, 2670 <ar0330_probe+0x1108>
    2424:	528c0042 	mov	w2, #0x6002                	// #24578
    2428:	b9006ba5 	str	w5, [x29, #104]
    242c:	94000000 	bl	0 <printk>
    2430:	b9406ba5 	ldr	w5, [x29, #104]
    2434:	71002cbf 	cmp	w5, #0xb
    2438:	54ffd7c1 	b.ne	1f30 <ar0330_probe+0x9c8>  // b.any
    243c:	17fffec8 	b	1f5c <ar0330_probe+0x9f4>
    2440:	79412fa3 	ldrh	w3, [x29, #150]
    2444:	110004a5 	add	w5, w5, #0x1
    2448:	58001c81 	ldr	x1, 27d8 <ar0330_probe+0x1270>
    244c:	2a0503e4 	mov	w4, w5
    2450:	58001100 	ldr	x0, 2670 <ar0330_probe+0x1108>
    2454:	528c0082 	mov	w2, #0x6004                	// #24580
    2458:	b90073a5 	str	w5, [x29, #112]
    245c:	94000000 	bl	0 <printk>
    2460:	b94073a5 	ldr	w5, [x29, #112]
    2464:	71002cbf 	cmp	w5, #0xb
    2468:	54fffb41 	b.ne	23d0 <ar0330_probe+0xe68>  // b.any
    246c:	17ffffe5 	b	2400 <ar0330_probe+0xe98>
    2470:	58001201 	ldr	x1, 26b0 <ar0330_probe+0x1148>
    2474:	52809e63 	mov	w3, #0x4f3                 	// #1267
    2478:	58000840 	ldr	x0, 2580 <ar0330_probe+0x1018>
    247c:	910fe2e2 	add	x2, x23, #0x3f8
    2480:	91070000 	add	x0, x0, #0x1c0
    2484:	94000000 	bl	0 <__dynamic_pr_debug>
    2488:	17fffe5e 	b	1e00 <ar0330_probe+0x898>
    248c:	580010e0 	ldr	x0, 26a8 <ar0330_probe+0x1140>
    2490:	910fe2e1 	add	x1, x23, #0x3f8
    2494:	94000000 	bl	0 <printk>
    2498:	17fffe70 	b	1e58 <ar0330_probe+0x8f0>
    249c:	58000fe0 	ldr	x0, 2698 <ar0330_probe+0x1130>
    24a0:	910fe2e1 	add	x1, x23, #0x3f8
    24a4:	94000000 	bl	0 <printk>
    24a8:	f94047a0 	ldr	x0, [x29, #136]
    24ac:	94000000 	bl	0 <kfree>
    24b0:	17fffe6e 	b	1e68 <ar0330_probe+0x900>
    24b4:	58000f20 	ldr	x0, 2698 <ar0330_probe+0x1130>
    24b8:	910fe2e1 	add	x1, x23, #0x3f8
    24bc:	94000000 	bl	0 <printk>
    24c0:	17fffe6a 	b	1e68 <ar0330_probe+0x900>
    24c4:	58001120 	ldr	x0, 26e8 <ar0330_probe+0x1180>
    24c8:	94000000 	bl	0 <printk>
    24cc:	17fffec2 	b	1fd4 <ar0330_probe+0xa6c>
    24d0:	794123a3 	ldrh	w3, [x29, #144]
    24d4:	1100077b 	add	w27, w27, #0x1
    24d8:	58001801 	ldr	x1, 27d8 <ar0330_probe+0x1270>
    24dc:	2a1b03e4 	mov	w4, w27
    24e0:	58000c80 	ldr	x0, 2670 <ar0330_probe+0x1108>
    24e4:	528c0042 	mov	w2, #0x6002                	// #24578
    24e8:	94000000 	bl	0 <printk>
    24ec:	71002f7f 	cmp	w27, #0xb
    24f0:	54ffc0c1 	b.ne	1d08 <ar0330_probe+0x7a0>  // b.any
    24f4:	17fffe0f 	b	1d30 <ar0330_probe+0x7c8>
	...

00000000000027e0 <init_private_data>:
    27e0:	a9be7bfd 	stp	x29, x30, [sp, #-32]!
    27e4:	910003fd 	mov	x29, sp
    27e8:	f9000bf3 	str	x19, [sp, #16]
    27ec:	aa0003f3 	mov	x19, x0
    27f0:	aa1e03e0 	mov	x0, x30
    27f4:	94000000 	bl	0 <_mcount>
    27f8:	58000180 	ldr	x0, 2828 <init_private_data+0x48>
    27fc:	b9000e7f 	str	wzr, [x19, #12]
    2800:	395b6000 	ldrb	w0, [x0, #1752]
    2804:	29050260 	stp	w0, w0, [x19, #40]
    2808:	29060260 	stp	w0, w0, [x19, #48]
    280c:	29070260 	stp	w0, w0, [x19, #56]
    2810:	29080260 	stp	w0, w0, [x19, #64]
    2814:	29090260 	stp	w0, w0, [x19, #72]
    2818:	290a0260 	stp	w0, w0, [x19, #80]
    281c:	f9400bf3 	ldr	x19, [sp, #16]
    2820:	a8c27bfd 	ldp	x29, x30, [sp], #32
    2824:	d65f03c0 	ret
	...

0000000000002830 <camera_common_parse_ports>:
    2830:	a9bc7bfd 	stp	x29, x30, [sp, #-64]!
    2834:	910003fd 	mov	x29, sp
    2838:	a90153f3 	stp	x19, x20, [sp, #16]
    283c:	a9025bf5 	stp	x21, x22, [sp, #32]
    2840:	aa0003f5 	mov	x21, x0
    2844:	aa0103f6 	mov	x22, x1
    2848:	aa1e03e0 	mov	x0, x30
    284c:	94000000 	bl	0 <_mcount>
    2850:	d2800001 	mov	x1, #0x0                   	// #0
    2854:	29077fbf 	stp	wzr, wzr, [x29, #56]
    2858:	f94136a0 	ldr	x0, [x21, #616]
    285c:	94000000 	bl	0 <of_graph_get_next_endpoint>
    2860:	aa0003f4 	mov	x20, x0
    2864:	b4000840 	cbz	x0, 296c <camera_common_parse_ports+0x13c>
    2868:	58000900 	ldr	x0, 2988 <camera_common_parse_ports+0x158>
    286c:	94000000 	bl	0 <printk>
    2870:	d2800000 	mov	x0, #0x0                   	// #0
    2874:	94000000 	bl	0 <of_node_put>
    2878:	580008c1 	ldr	x1, 2990 <camera_common_parse_ports+0x160>
    287c:	d2800004 	mov	x4, #0x0                   	// #0
    2880:	d2800023 	mov	x3, #0x1                   	// #1
    2884:	9100e3a2 	add	x2, x29, #0x38
    2888:	aa1403e0 	mov	x0, x20
    288c:	94000000 	bl	0 <of_property_read_variable_u32_array>
    2890:	2a0003f3 	mov	w19, w0
    2894:	37f80400 	tbnz	w0, #31, 2914 <camera_common_parse_ports+0xe4>
    2898:	58000840 	ldr	x0, 29a0 <camera_common_parse_ports+0x170>
    289c:	94000000 	bl	0 <printk>
    28a0:	58000841 	ldr	x1, 29a8 <camera_common_parse_ports+0x178>
    28a4:	d2800004 	mov	x4, #0x0                   	// #0
    28a8:	b9403ba0 	ldr	w0, [x29, #56]
    28ac:	d2800023 	mov	x3, #0x1                   	// #1
    28b0:	b90212c0 	str	w0, [x22, #528]
    28b4:	9100f3a2 	add	x2, x29, #0x3c
    28b8:	aa1403e0 	mov	x0, x20
    28bc:	94000000 	bl	0 <of_property_read_variable_u32_array>
    28c0:	2a0003f3 	mov	w19, w0
    28c4:	37f80180 	tbnz	w0, #31, 28f4 <camera_common_parse_ports+0xc4>
    28c8:	58000780 	ldr	x0, 29b8 <camera_common_parse_ports+0x188>
    28cc:	94000000 	bl	0 <printk>
    28d0:	b9403fa4 	ldr	w4, [x29, #60]
    28d4:	b9020ec4 	str	w4, [x22, #524]
    28d8:	d503201f 	nop
    28dc:	52800013 	mov	w19, #0x0                   	// #0
    28e0:	2a1303e0 	mov	w0, w19
    28e4:	a94153f3 	ldp	x19, x20, [sp, #16]
    28e8:	a9425bf5 	ldp	x21, x22, [sp, #32]
    28ec:	a8c47bfd 	ldp	x29, x30, [sp], #64
    28f0:	d65f03c0 	ret
    28f4:	580005e1 	ldr	x1, 29b0 <camera_common_parse_ports+0x180>
    28f8:	aa1503e0 	mov	x0, x21
    28fc:	94000000 	bl	0 <printk>
    2900:	2a1303e0 	mov	w0, w19
    2904:	a94153f3 	ldp	x19, x20, [sp, #16]
    2908:	a9425bf5 	ldp	x21, x22, [sp, #32]
    290c:	a8c47bfd 	ldp	x29, x30, [sp], #64
    2910:	d65f03c0 	ret
    2914:	58000421 	ldr	x1, 2998 <camera_common_parse_ports+0x168>
    2918:	aa1503e0 	mov	x0, x21
    291c:	94000000 	bl	0 <printk>
    2920:	2a1303e0 	mov	w0, w19
    2924:	a94153f3 	ldp	x19, x20, [sp, #16]
    2928:	a9425bf5 	ldp	x21, x22, [sp, #32]
    292c:	a8c47bfd 	ldp	x29, x30, [sp], #64
    2930:	d65f03c0 	ret
    2934:	b94212c5 	ldr	w5, [x22, #528]
    2938:	aa1503e1 	mov	x1, x21
    293c:	58000462 	ldr	x2, 29c8 <camera_common_parse_ports+0x198>
    2940:	52800013 	mov	w19, #0x0                   	// #0
    2944:	580003e3 	ldr	x3, 29c0 <camera_common_parse_ports+0x190>
    2948:	58000440 	ldr	x0, 29d0 <camera_common_parse_ports+0x1a0>
    294c:	9111c063 	add	x3, x3, #0x470
    2950:	91090000 	add	x0, x0, #0x240
    2954:	94000000 	bl	0 <__dynamic_dev_dbg>
    2958:	2a1303e0 	mov	w0, w19
    295c:	a94153f3 	ldp	x19, x20, [sp, #16]
    2960:	a9425bf5 	ldp	x21, x22, [sp, #32]
    2964:	a8c47bfd 	ldp	x29, x30, [sp], #64
    2968:	d65f03c0 	ret
    296c:	580000a0 	ldr	x0, 2980 <camera_common_parse_ports+0x150>
    2970:	12800793 	mov	w19, #0xffffffc3            	// #-61
    2974:	94000000 	bl	0 <printk>
    2978:	17ffffda 	b	28e0 <camera_common_parse_ports+0xb0>
    297c:	d503201f 	nop
	...

Disassembly of section .text.unlikely:

0000000000000000 <ar0330_bulk_write.isra.4>:
   0:	a9bb7bfd 	stp	x29, x30, [sp, #-80]!
   4:	910003fd 	mov	x29, sp
   8:	a90153f3 	stp	x19, x20, [sp, #16]
   c:	a9025bf5 	stp	x21, x22, [sp, #32]
  10:	a90363f7 	stp	x23, x24, [sp, #48]
  14:	a9046bf9 	stp	x25, x26, [sp, #64]
  18:	12003c34 	and	w20, w1, #0xffff
  1c:	aa0203f7 	mov	x23, x2
  20:	aa0303f5 	mov	x21, x3
  24:	aa0003fa 	mov	x26, x0
  28:	aa1e03e0 	mov	x0, x30
  2c:	94000000 	bl	0 <_mcount>
  30:	58000480 	ldr	x0, c0 <ar0330_bulk_write.isra.4+0xc0>
  34:	aa1503e3 	mov	x3, x21
  38:	58000401 	ldr	x1, b8 <ar0330_bulk_write.isra.4+0xb8>
  3c:	2a1403e2 	mov	w2, w20
  40:	52800013 	mov	w19, #0x0                   	// #0
  44:	9104a021 	add	x1, x1, #0x128
  48:	aa0103f9 	mov	x25, x1
  4c:	94000000 	bl	0 <printk>
  50:	580003d8 	ldr	x24, c8 <ar0330_bulk_write.isra.4+0xc8>
  54:	f9400b40 	ldr	x0, [x26, #16]
  58:	aa1503e3 	mov	x3, x21
  5c:	aa1703e2 	mov	x2, x23
  60:	2a1403e1 	mov	w1, w20
  64:	94000000 	bl	0 <regmap_bulk_write>
  68:	2a0003f6 	mov	w22, w0
  6c:	34000160 	cbz	w0, 98 <ar0330_bulk_write.isra.4+0x98>
  70:	394002e3 	ldrb	w3, [x23]
  74:	11000673 	add	w19, w19, #0x1
  78:	2a1303e5 	mov	w5, w19
  7c:	2a1503e4 	mov	w4, w21
  80:	2a1403e2 	mov	w2, w20
  84:	aa1903e1 	mov	x1, x25
  88:	aa1803e0 	mov	x0, x24
  8c:	94000000 	bl	0 <printk>
  90:	7100567f 	cmp	w19, #0x15
  94:	54fffe01 	b.ne	54 <ar0330_bulk_write.isra.4+0x54>  // b.any
  98:	2a1603e0 	mov	w0, w22
  9c:	a94153f3 	ldp	x19, x20, [sp, #16]
  a0:	a9425bf5 	ldp	x21, x22, [sp, #32]
  a4:	a94363f7 	ldp	x23, x24, [sp, #48]
  a8:	a9446bf9 	ldp	x25, x26, [sp, #64]
  ac:	a8c57bfd 	ldp	x29, x30, [sp], #80
  b0:	d65f03c0 	ret
  b4:	d503201f 	nop
	...

Disassembly of section .init.text:

0000000000000000 <init_module>:
   0:	a9bf7bfd 	stp	x29, x30, [sp, #-16]!
   4:	910003fd 	mov	x29, sp
   8:	58000100 	ldr	x0, 28 <init_module+0x28>
   c:	580000a1 	ldr	x1, 20 <init_module+0x20>
  10:	911b8021 	add	x1, x1, #0x6e0
  14:	94000000 	bl	0 <i2c_register_driver>
  18:	a8c17bfd 	ldp	x29, x30, [sp], #16
  1c:	d65f03c0 	ret
	...

Disassembly of section .exit.text:

0000000000000000 <cleanup_module>:
   0:	a9bf7bfd 	stp	x29, x30, [sp, #-16]!
   4:	910003fd 	mov	x29, sp
   8:	580000c0 	ldr	x0, 20 <cleanup_module+0x20>
   c:	911b8000 	add	x0, x0, #0x6e0
  10:	94000000 	bl	0 <i2c_del_driver>
  14:	a8c17bfd 	ldp	x29, x30, [sp], #16
  18:	d65f03c0 	ret
  1c:	d503201f 	nop
	...

Disassembly of section .modinfo:

0000000000000000 <__UNIQUE_ID_version23>:
   0:	73726576 	.word	0x73726576
   4:	3d6e6f69 	.word	0x3d6e6f69
   8:	2e302e31 	.word	0x2e302e31
   c:	0030      	.short	0x0030

000000000000000e <__UNIQUE_ID_license22>:
   e:	696c      	.short	0x696c
  10:	736e6563 	.word	0x736e6563
  14:	50473d65 	.word	0x50473d65
  18:	3276204c 	.word	0x3276204c
	...

000000000000001d <__UNIQUE_ID_author21>:
  1d:	61          	.byte	0x61
  1e:	7475      	.short	0x7475
  20:	3d726f68 	.word	0x3d726f68
  24:	6f632d65 	.word	0x6f632d65
  28:	7379736e 	.word	0x7379736e
  2c:	736d6574 	.word	0x736d6574
	...

0000000000000031 <__UNIQUE_ID_description20>:
  31:	64          	.byte	0x64
  32:	7365      	.short	0x7365
  34:	70697263 	.word	0x70697263
  38:	6e6f6974 	.word	0x6e6f6974
  3c:	64654d3d 	.word	0x64654d3d
  40:	43206169 	.word	0x43206169
  44:	2d204c54 	.word	0x2d204c54
  48:	4c345620 	.word	0x4c345620
  4c:	72642032 	.word	0x72642032
  50:	72657669 	.word	0x72657669
  54:	726f6620 	.word	0x726f6620
  58:	536e4f20 	.word	0x536e4f20
  5c:	20696d65 	.word	0x20696d65
  60:	33305241 	.word	0x33305241
  64:	532d3033 	.word	0x532d3033
  68:	65726574 	.word	0x65726574
  6c:	0000006f 	.word	0x0000006f

0000000000000070 <__UNIQUE_ID_srcversion12>:
  70:	76637273 	.word	0x76637273
  74:	69737265 	.word	0x69737265
  78:	363d6e6f 	.word	0x363d6e6f
  7c:	30304536 	.word	0x30304536
  80:	46363843 	.word	0x46363843
  84:	44463236 	.word	0x44463236
  88:	46303932 	.word	0x46303932
  8c:	46453335 	.word	0x46453335
  90:	4242      	.short	0x4242
	...

0000000000000093 <__UNIQUE_ID_alias11>:
  93:	61          	.byte	0x61
  94:	7361696c 	.word	0x7361696c
  98:	3a666f3d 	.word	0x3a666f3d
  9c:	2a542a4e 	.word	0x2a542a4e
  a0:	69766e43 	.word	0x69766e43
  a4:	2c616964 	.word	0x2c616964
  a8:	33307261 	.word	0x33307261
  ac:	2a433033 	.word	0x2a433033
	...

00000000000000b1 <__UNIQUE_ID_alias10>:
  b1:	61696c61 	.inst	0x61696c61 ; undefined
  b5:	666f3d73 	.inst	0x666f3d73 ; undefined
  b9:	542a4e3a 	.inst	0x542a4e3a ; undefined
  bd:	766e432a 	.inst	0x766e432a ; undefined
  c1:	61696469 	.inst	0x61696469 ; undefined
  c5:	3072612c 	adr	x12, e4cea <camera_common_parse_ports+0xe24ba>
  c9:	00303333 	.inst	0x00303333 ; NYI

00000000000000cd <__UNIQUE_ID_alias9>:
  cd:	61          	.byte	0x61
  ce:	696c      	.short	0x696c
  d0:	693d7361 	.word	0x693d7361
  d4:	613a6332 	.word	0x613a6332
  d8:	33333072 	.word	0x33333072
  dc:	00000030 	.word	0x00000030

00000000000000e0 <__module_depends>:
  e0:	65706564 	.word	0x65706564
  e4:	3d73646e 	.word	0x3d73646e
	...

00000000000000e9 <__UNIQUE_ID_vermagic8>:
  e9:	76          	.byte	0x76
  ea:	7265      	.short	0x7265
  ec:	6967616d 	.word	0x6967616d
  f0:	2e343d63 	.word	0x2e343d63
  f4:	34312e39 	.word	0x34312e39
  f8:	4d532030 	.word	0x4d532030
  fc:	72702050 	.word	0x72702050
 100:	706d6565 	.word	0x706d6565
 104:	6f6d2074 	.word	0x6f6d2074
 108:	6e755f64 	.word	0x6e755f64
 10c:	64616f6c 	.word	0x64616f6c
 110:	646f6d20 	.word	0x646f6d20
 114:	73726576 	.word	0x73726576
 118:	736e6f69 	.word	0x736e6f69
 11c:	72616120 	.word	0x72616120
 120:	34366863 	.word	0x34366863
	...

Disassembly of section __mcount_loc:

0000000000000000 <__mcount_loc>:
	...

Disassembly of section __versions:

0000000000000000 <____versions>:
       0:	059253af 	.word	0x059253af
       4:	00000000 	.word	0x00000000
       8:	75646f6d 	.word	0x75646f6d
       c:	656c      	.short	0x656c
       e:	6c5f      	.short	0x6c5f
      10:	756f7961 	.word	0x756f7961
      14:	00000074 	.word	0x00000074
	...
      40:	ed14542e 	.word	0xed14542e
      44:	00000000 	.word	0x00000000
      48:	656d6163 	.word	0x656d6163
      4c:	635f6172 	.word	0x635f6172
      50:	6f6d6d6f 	.word	0x6f6d6d6f
      54:	5f675f6e 	.word	0x5f675f6e
      58:	7375626d 	.word	0x7375626d
      5c:	6e6f635f 	.word	0x6e6f635f
      60:	00676966 	.word	0x00676966
	...
      80:	f9d08ccc 	.word	0xf9d08ccc
      84:	00000000 	.word	0x00000000
      88:	656d6163 	.word	0x656d6163
      8c:	635f6172 	.word	0x635f6172
      90:	6d6f      	.short	0x6d6f
      92:	6d          	.byte	0x6d
      93:	6f          	.byte	0x6f
      94:	5f735f6e 	.word	0x5f735f6e
      98:	65776f70 	.word	0x65776f70
      9c:	00000072 	.word	0x00000072
	...
      c0:	9732c114 	.word	0x9732c114
      c4:	00000000 	.word	0x00000000
      c8:	656d6163 	.word	0x656d6163
      cc:	72          	.byte	0x72
      cd:	61          	.byte	0x61
      ce:	635f      	.short	0x635f
      d0:	6f6d6d6f 	.word	0x6f6d6d6f
      d4:	6e655f6e 	.word	0x6e655f6e
      d8:	665f6d75 	.word	0x665f6d75
      dc:	656d6172 	.word	0x656d6172
      e0:	65746e69 	.word	0x65746e69
      e4:	6c617672 	.word	0x6c617672
      e8:	73          	.byte	0x73
	...
      fd:	00          	.byte	0x00
      fe:	0000      	.short	0x0000
     100:	48371b1c 	.word	0x48371b1c
     104:	00000000 	.word	0x00000000
     108:	656d6163 	.word	0x656d6163
     10c:	635f6172 	.word	0x635f6172
     110:	6f6d6d6f 	.word	0x6f6d6d6f
     114:	6e655f6e 	.word	0x6e655f6e
     118:	665f6d75 	.word	0x665f6d75
     11c:	656d6172 	.word	0x656d6172
     120:	657a6973 	.word	0x657a6973
     124:	00000073 	.word	0x00000073
	...
     140:	55ce2f21 	.word	0x55ce2f21
     144:	00000000 	.word	0x00000000
     148:	656d6163 	.word	0x656d6163
     14c:	635f6172 	.word	0x635f6172
     150:	6f6d6d6f 	.word	0x6f6d6d6f
     154:	6e655f6e 	.word	0x6e655f6e
     158:	6d5f6d75 	.word	0x6d5f6d75
     15c:	5f737562 	.word	0x5f737562
     160:	65646f63 	.word	0x65646f63
	...
     180:	88f0480a 	.word	0x88f0480a
     184:	00000000 	.word	0x00000000
     188:	326c3476 	.word	0x326c3476
     18c:	6275735f 	.word	0x6275735f
     190:	5f766564 	.word	0x5f766564
     194:	6b6e696c 	.word	0x6b6e696c
     198:	6c61765f 	.word	0x6c61765f
     19c:	74616469 	.word	0x74616469
     1a0:	00000065 	.word	0x00000065
	...
     1c0:	7d34cd8b 	.word	0x7d34cd8b
     1c4:	00000000 	.word	0x00000000
     1c8:	5f633269 	.word	0x5f633269
     1cc:	5f6c6564 	.word	0x5f6c6564
     1d0:	76697264 	.word	0x76697264
     1d4:	00007265 	.word	0x00007265
	...
     200:	a6105046 	.word	0xa6105046
     204:	00000000 	.word	0x00000000
     208:	5f633269 	.word	0x5f633269
     20c:	69676572 	.word	0x69676572
     210:	72657473 	.word	0x72657473
     214:	6972645f 	.word	0x6972645f
     218:	00726576 	.word	0x00726576
	...
     240:	60bef4d1 	.word	0x60bef4d1
     244:	00000000 	.word	0x00000000
     248:	705f666f 	.word	0x705f666f
     24c:	65706f72 	.word	0x65706f72
     250:	5f797472 	.word	0x5f797472
     254:	64616572 	.word	0x64616572
     258:	7261765f 	.word	0x7261765f
     25c:	6c626169 	.word	0x6c626169
     260:	33755f65 	.word	0x33755f65
     264:	72615f32 	.word	0x72615f32
     268:	00796172 	.word	0x00796172
	...
     280:	578df9d2 	.word	0x578df9d2
     284:	00000000 	.word	0x00000000
     288:	6e5f666f 	.word	0x6e5f666f
     28c:	5f65646f 	.word	0x5f65646f
     290:	00747570 	.word	0x00747570
	...
     2c0:	b8629227 	.word	0xb8629227
     2c4:	00000000 	.word	0x00000000
     2c8:	675f666f 	.word	0x675f666f
     2cc:	68706172 	.word	0x68706172
     2d0:	7465675f 	.word	0x7465675f
     2d4:	78656e5f 	.word	0x78656e5f
     2d8:	6e655f74 	.word	0x6e655f74
     2dc:	696f7064 	.word	0x696f7064
     2e0:	0000746e 	.word	0x0000746e
	...
     300:	2a098b39 	.word	0x2a098b39
     304:	00000000 	.word	0x00000000
     308:	6c616d6b 	.word	0x6c616d6b
     30c:	5f636f6c 	.word	0x5f636f6c
     310:	68636163 	.word	0x68636163
     314:	00007365 	.word	0x00007365
	...
     340:	8efb1ee3 	.word	0x8efb1ee3
     344:	00000000 	.word	0x00000000
     348:	79645f5f 	.word	0x79645f5f
     34c:	696d616e 	.word	0x696d616e
     350:	72705f63 	.word	0x72705f63
     354:	6265645f 	.word	0x6265645f
     358:	00006775 	.word	0x00006775
	...
     380:	99077d08 	.word	0x99077d08
     384:	00000000 	.word	0x00000000
     388:	326c3476 	.word	0x326c3476
     38c:	7274635f 	.word	0x7274635f
     390:	61685f6c 	.word	0x61685f6c
     394:	656c646e 	.word	0x656c646e
     398:	65735f72 	.word	0x65735f72
     39c:	00707574 	.word	0x00707574
	...
     3c0:	d58b34c2 	.word	0xd58b34c2
     3c4:	00000000 	.word	0x00000000
     3c8:	326c3476 	.word	0x326c3476
     3cc:	7973615f 	.word	0x7973615f
     3d0:	725f636e 	.word	0x725f636e
     3d4:	73696765 	.word	0x73696765
     3d8:	5f726574 	.word	0x5f726574
     3dc:	64627573 	.word	0x64627573
     3e0:	00007665 	.word	0x00007665
	...
     400:	a130f116 	.word	0xa130f116
     404:	00000000 	.word	0x00000000
     408:	72676574 	.word	0x72676574
     40c:	656d5f61 	.word	0x656d5f61
     410:	5f616964 	.word	0x5f616964
     414:	69746e65 	.word	0x69746e65
     418:	695f7974 	.word	0x695f7974
     41c:	0074696e 	.word	0x0074696e
	...
     440:	5232d3d0 	.word	0x5232d3d0
     444:	00000000 	.word	0x00000000
     448:	326c3476 	.word	0x326c3476
     44c:	7274635f 	.word	0x7274635f
     450:	656e5f6c 	.word	0x656e5f6c
     454:	74735f77 	.word	0x74735f77
     458:	00000064 	.word	0x00000064
	...
     480:	506c77e6 	.word	0x506c77e6
     484:	00000000 	.word	0x00000000
     488:	326c3476 	.word	0x326c3476
     48c:	7274635f 	.word	0x7274635f
     490:	61685f6c 	.word	0x61685f6c
     494:	656c646e 	.word	0x656c646e
     498:	6e695f72 	.word	0x6e695f72
     49c:	635f7469 	.word	0x635f7469
     4a0:	7373616c 	.word	0x7373616c
	...
     4c0:	43f92098 	.word	0x43f92098
     4c4:	00000000 	.word	0x00000000
     4c8:	326c3476 	.word	0x326c3476
     4cc:	6332695f 	.word	0x6332695f
     4d0:	6275735f 	.word	0x6275735f
     4d4:	5f766564 	.word	0x5f766564
     4d8:	74696e69 	.word	0x74696e69
	...
     500:	037a0cba 	.word	0x037a0cba
     504:	00000000 	.word	0x00000000
     508:	6572666b 	.word	0x6572666b
     50c:	00000065 	.word	0x00000065
	...
     540:	f9a482f9 	.word	0xf9a482f9
     544:	00000000 	.word	0x00000000
     548:	656c736d 	.word	0x656c736d
     54c:	00007065 	.word	0x00007065
	...
     580:	4829a47e 	.word	0x4829a47e
     584:	00000000 	.word	0x00000000
     588:	636d656d 	.word	0x636d656d
     58c:	00007970 	.word	0x00007970
	...
     5c0:	81f3f299 	.word	0x81f3f299
     5c4:	00000000 	.word	0x00000000
     5c8:	6d656d6b 	.word	0x6d656d6b
     5cc:	6361635f 	.word	0x6361635f
     5d0:	615f6568 	.word	0x615f6568
     5d4:	636f6c6c 	.word	0x636f6c6c
     5d8:	6172745f 	.word	0x6172745f
     5dc:	00006563 	.word	0x00006563
	...
     600:	028379bf 	.word	0x028379bf
     604:	00000000 	.word	0x00000000
     608:	5f633269 	.word	0x5f633269
     60c:	6e617274 	.word	0x6e617274
     610:	72656673 	.word	0x72656673
	...
     640:	56075d30 	.word	0x56075d30
     644:	00000000 	.word	0x00000000
     648:	656d6163 	.word	0x656d6163
     64c:	635f6172 	.word	0x635f6172
     650:	6f6d6d6f 	.word	0x6f6d6d6f
     654:	6e695f6e 	.word	0x6e695f6e
     658:	61697469 	.word	0x61697469
     65c:	657a696c 	.word	0x657a696c
	...
     680:	47229b5c 	.word	0x47229b5c
     684:	00000000 	.word	0x00000000
     688:	6f697067 	.word	0x6f697067
     68c:	7165725f 	.word	0x7165725f
     690:	74736575 	.word	0x74736575
	...
     6c0:	a3f9d513 	.word	0xa3f9d513
     6c4:	00000000 	.word	0x00000000
     6c8:	6d766564 	.word	0x6d766564
     6cc:	72666b5f 	.word	0x72666b5f
     6d0:	00006565 	.word	0x00006565
	...
     700:	35ab6cbb 	.word	0x35ab6cbb
     704:	00000000 	.word	0x00000000
     708:	5f6d6163 	.word	0x5f6d6163
     70c:	6f697067 	.word	0x6f697067
     710:	6765725f 	.word	0x6765725f
     714:	65747369 	.word	0x65747369
     718:	00000072 	.word	0x00000072
	...
     740:	649efdce 	.word	0x649efdce
     744:	00000000 	.word	0x00000000
     748:	656d6163 	.word	0x656d6163
     74c:	635f6172 	.word	0x635f6172
     750:	6f6d6d6f 	.word	0x6f6d6d6f
     754:	65725f6e 	.word	0x65725f6e
     758:	616c7567 	.word	0x616c7567
     75c:	5f726f74 	.word	0x5f726f74
     760:	00746567 	.word	0x00746567
	...
     780:	2396c7f0 	.word	0x2396c7f0
     784:	00000000 	.word	0x00000000
     788:	5f6b6c63 	.word	0x5f6b6c63
     78c:	5f746573 	.word	0x5f746573
     790:	65726170 	.word	0x65726170
     794:	0000746e 	.word	0x0000746e
	...
     7c0:	dc3240df 	.word	0xdc3240df
     7c4:	00000000 	.word	0x00000000
     7c8:	6d766564 	.word	0x6d766564
     7cc:	6b6c635f 	.word	0x6b6c635f
     7d0:	7465675f 	.word	0x7465675f
	...
     800:	30848a0b 	.word	0x30848a0b
     804:	00000000 	.word	0x00000000
     808:	656d6163 	.word	0x656d6163
     80c:	635f6172 	.word	0x635f6172
     810:	6f6d6d6f 	.word	0x6f6d6d6f
     814:	69665f6e 	.word	0x69665f6e
     818:	645f646e 	.word	0x645f646e
     81c:	66617461 	.word	0x66617461
     820:	0000746d 	.word	0x0000746d
	...
     840:	34726be6 	.word	0x34726be6
     844:	00000000 	.word	0x00000000
     848:	705f666f 	.word	0x705f666f
     84c:	65706f72 	.word	0x65706f72
     850:	5f797472 	.word	0x5f797472
     854:	64616572 	.word	0x64616572
     858:	7274735f 	.word	0x7274735f
     85c:	00676e69 	.word	0x00676e69
	...
     880:	8a5363e4 	.word	0x8a5363e4
     884:	00000000 	.word	0x00000000
     888:	665f666f 	.word	0x665f666f
     88c:	5f646e69 	.word	0x5f646e69
     890:	706f7270 	.word	0x706f7270
     894:	79747265 	.word	0x79747265
	...
     8c0:	504f19b2 	.word	0x504f19b2
     8c4:	00000000 	.word	0x00000000
     8c8:	675f666f 	.word	0x675f666f
     8cc:	6e5f7465 	.word	0x6e5f7465
     8d0:	64656d61 	.word	0x64656d61
     8d4:	6970675f 	.word	0x6970675f
     8d8:	6c665f6f 	.word	0x6c665f6f
     8dc:	00736761 	.word	0x00736761
	...
     900:	bf581ef8 	.word	0xbf581ef8
     904:	00000000 	.word	0x00000000
     908:	656d6163 	.word	0x656d6163
     90c:	635f6172 	.word	0x635f6172
     910:	6f6d6d6f 	.word	0x6f6d6d6f
     914:	61705f6e 	.word	0x61705f6e
     918:	5f657372 	.word	0x5f657372
     91c:	636f6c63 	.word	0x636f6c63
     920:	0000736b 	.word	0x0000736b
	...
     940:	189bbae4 	.word	0x189bbae4
     944:	00000000 	.word	0x00000000
     948:	6d5f666f 	.word	0x6d5f666f
     94c:	68637461 	.word	0x68637461
     950:	7665645f 	.word	0x7665645f
     954:	00656369 	.word	0x00656369
	...
     980:	97d3d26e 	.word	0x97d3d26e
     984:	00000000 	.word	0x00000000
     988:	65645f5f 	.word	0x65645f5f
     98c:	725f6d76 	.word	0x725f6d76
     990:	616d6765 	.word	0x616d6765
     994:	6e695f70 	.word	0x6e695f70
     998:	695f7469 	.word	0x695f7469
     99c:	00006332 	.word	0x00006332
	...
     9c0:	f4e13e7b 	.word	0xf4e13e7b
     9c4:	00000000 	.word	0x00000000
     9c8:	6d766564 	.word	0x6d766564
     9cc:	616d6b5f 	.word	0x616d6b5f
     9d0:	636f6c6c 	.word	0x636f6c6c
	...
     a00:	afb42747 	.word	0xafb42747
     a04:	00000000 	.word	0x00000000
     a08:	6d676572 	.word	0x6d676572
     a0c:	625f7061 	.word	0x625f7061
     a10:	5f6b6c75 	.word	0x5f6b6c75
     a14:	74697277 	.word	0x74697277
     a18:	00000065 	.word	0x00000065
	...
     a40:	f47e8766 	.word	0xf47e8766
     a44:	00000000 	.word	0x00000000
     a48:	75676572 	.word	0x75676572
     a4c:	6f74616c 	.word	0x6f74616c
     a50:	6e655f72 	.word	0x6e655f72
     a54:	656c6261 	.word	0x656c6261
	...
     a80:	ebc90ea1 	.word	0xebc90ea1
     a84:	00000000 	.word	0x00000000
     a88:	75676572 	.word	0x75676572
     a8c:	6f74616c 	.word	0x6f74616c
     a90:	69645f72 	.word	0x69645f72
     a94:	6c626173 	.word	0x6c626173
     a98:	00000065 	.word	0x00000065
	...
     ac0:	12a38747 	.word	0x12a38747
     ac4:	00000000 	.word	0x00000000
     ac8:	656c7375 	.word	0x656c7375
     acc:	725f7065 	.word	0x725f7065
     ad0:	65676e61 	.word	0x65676e61
	...
     b00:	ef7351c1 	.word	0xef7351c1
     b04:	00000000 	.word	0x00000000
     b08:	5f6d6163 	.word	0x5f6d6163
     b0c:	6f697067 	.word	0x6f697067
     b10:	7274635f 	.word	0x7274635f
     b14:	0000006c 	.word	0x0000006c
	...
     b40:	9a96c463 	.word	0x9a96c463
     b44:	00000000 	.word	0x00000000
     b48:	6f697067 	.word	0x6f697067
     b4c:	65735f64 	.word	0x65735f64
     b50:	61725f74 	.word	0x61725f74
     b54:	61765f77 	.word	0x61765f77
     b58:	5f65756c 	.word	0x5f65756c
     b5c:	736e6163 	.word	0x736e6163
     b60:	7065656c 	.word	0x7065656c
	...
     b80:	b9e24c55 	.word	0xb9e24c55
     b84:	00000000 	.word	0x00000000
     b88:	6f697067 	.word	0x6f697067
     b8c:	65735f64 	.word	0x65735f64
     b90:	61725f74 	.word	0x61725f74
     b94:	61765f77 	.word	0x61765f77
     b98:	0065756c 	.word	0x0065756c
	...
     bc0:	a6b67391 	.word	0xa6b67391
     bc4:	00000000 	.word	0x00000000
     bc8:	6f697067 	.word	0x6f697067
     bcc:	69645f64 	.word	0x69645f64
     bd0:	74636572 	.word	0x74636572
     bd4:	5f6e6f69 	.word	0x5f6e6f69
     bd8:	7074756f 	.word	0x7074756f
     bdc:	725f7475 	.word	0x725f7475
     be0:	00007761 	.word	0x00007761
	...
     c00:	7e06de2e 	.word	0x7e06de2e
     c04:	00000000 	.word	0x00000000
     c08:	6f697067 	.word	0x6f697067
     c0c:	61635f64 	.word	0x61635f64
     c10:	656c736e 	.word	0x656c736e
     c14:	00007065 	.word	0x00007065
	...
     c40:	f1ce739e 	.word	0xf1ce739e
     c44:	00000000 	.word	0x00000000
     c48:	6f697067 	.word	0x6f697067
     c4c:	5f6f745f 	.word	0x5f6f745f
     c50:	63736564 	.word	0x63736564
	...
     c80:	656d0d13 	.word	0x656d0d13
     c84:	00000000 	.word	0x00000000
     c88:	6d676572 	.word	0x6d676572
     c8c:	775f7061 	.word	0x775f7061
     c90:	65746972 	.word	0x65746972
	...
     cc0:	ea421b3b 	.word	0xea421b3b
     cc4:	00000000 	.word	0x00000000
     cc8:	5f766564 	.word	0x5f766564
     ccc:	00727265 	.word	0x00727265
	...
     d00:	d047655d 	.word	0xd047655d
     d04:	00000000 	.word	0x00000000
     d08:	6d676572 	.word	0x6d676572
     d0c:	755f7061 	.word	0x755f7061
     d10:	5f6c6974 	.word	0x5f6c6974
     d14:	74697277 	.word	0x74697277
     d18:	61745f65 	.word	0x61745f65
     d1c:	5f656c62 	.word	0x5f656c62
     d20:	615f3631 	.word	0x615f3631
     d24:	00385f73 	.word	0x00385f73
	...
     d40:	e97b5c73 	.word	0xe97b5c73
     d44:	00000000 	.word	0x00000000
     d48:	656d6163 	.word	0x656d6163
     d4c:	635f6172 	.word	0x635f6172
     d50:	6f6d6d6f 	.word	0x6f6d6d6f
     d54:	5f675f6e 	.word	0x5f675f6e
     d58:	00746d66 	.word	0x00746d66
	...
     d80:	421f6567 	.word	0x421f6567
     d84:	00000000 	.word	0x00000000
     d88:	656d6163 	.word	0x656d6163
     d8c:	635f6172 	.word	0x635f6172
     d90:	6f6d6d6f 	.word	0x6f6d6d6f
     d94:	5f735f6e 	.word	0x5f735f6e
     d98:	00746d66 	.word	0x00746d66
	...
     dc0:	30f9f370 	.word	0x30f9f370
     dc4:	00000000 	.word	0x00000000
     dc8:	656d6163 	.word	0x656d6163
     dcc:	635f6172 	.word	0x635f6172
     dd0:	6f6d6d6f 	.word	0x6f6d6d6f
     dd4:	72745f6e 	.word	0x72745f6e
     dd8:	6d665f79 	.word	0x6d665f79
     ddc:	00000074 	.word	0x00000074
	...
     e00:	4a4cdd53 	.word	0x4a4cdd53
     e04:	00000000 	.word	0x00000000
     e08:	5f6d6163 	.word	0x5f6d6163
     e0c:	6f697067 	.word	0x6f697067
     e10:	7265645f 	.word	0x7265645f
     e14:	73696765 	.word	0x73696765
     e18:	00726574 	.word	0x00726574
	...
     e40:	70481462 	.word	0x70481462
     e44:	00000000 	.word	0x00000000
     e48:	656d6163 	.word	0x656d6163
     e4c:	635f6172 	.word	0x635f6172
     e50:	6f6d6d6f 	.word	0x6f6d6d6f
     e54:	65725f6e 	.word	0x65725f6e
     e58:	65766f6d 	.word	0x65766f6d
     e5c:	6265645f 	.word	0x6265645f
     e60:	73666775 	.word	0x73666775
	...
     e80:	fe990052 	.word	0xfe990052
     e84:	00000000 	.word	0x00000000
     e88:	6f697067 	.word	0x6f697067
     e8c:	6572665f 	.word	0x6572665f
     e90:	00000065 	.word	0x00000065
	...
     ec0:	95db5fca 	.word	0x95db5fca
     ec4:	00000000 	.word	0x00000000
     ec8:	75676572 	.word	0x75676572
     ecc:	6f74616c 	.word	0x6f74616c
     ed0:	75705f72 	.word	0x75705f72
     ed4:	00000074 	.word	0x00000074
	...
     f00:	93d60fcd 	.word	0x93d60fcd
     f04:	00000000 	.word	0x00000000
     f08:	326c3476 	.word	0x326c3476
     f0c:	7274635f 	.word	0x7274635f
     f10:	61685f6c 	.word	0x61685f6c
     f14:	656c646e 	.word	0x656c646e
     f18:	72665f72 	.word	0x72665f72
     f1c:	00006565 	.word	0x00006565
	...
     f40:	a880ba49 	.word	0xa880ba49
     f44:	00000000 	.word	0x00000000
     f48:	326c3476 	.word	0x326c3476
     f4c:	7973615f 	.word	0x7973615f
     f50:	755f636e 	.word	0x755f636e
     f54:	6765726e 	.word	0x6765726e
     f58:	65747369 	.word	0x65747369
     f5c:	75735f72 	.word	0x75735f72
     f60:	76656462 	.word	0x76656462
	...
     f80:	4d7fa7f7 	.word	0x4d7fa7f7
     f84:	00000000 	.word	0x00000000
     f88:	736e6573 	.word	0x736e6573
     f8c:	635f726f 	.word	0x635f726f
     f90:	6f6d6d6f 	.word	0x6f6d6d6f
     f94:	61705f6e 	.word	0x61705f6e
     f98:	5f657372 	.word	0x5f657372
     f9c:	5f6d756e 	.word	0x5f6d756e
     fa0:	65646f6d 	.word	0x65646f6d
     fa4:	00000073 	.word	0x00000073
	...
     fc0:	5c1051c6 	.word	0x5c1051c6
     fc4:	00000000 	.word	0x00000000
     fc8:	79645f5f 	.word	0x79645f5f
     fcc:	696d616e 	.word	0x696d616e
     fd0:	65645f63 	.word	0x65645f63
     fd4:	62645f76 	.word	0x62645f76
     fd8:	00000067 	.word	0x00000067
	...
    1000:	1fdc7df2 	.word	0x1fdc7df2
    1004:	00000000 	.word	0x00000000
    1008:	6f636d5f 	.word	0x6f636d5f
    100c:	00746e75 	.word	0x00746e75
	...
    1040:	27e1a049 	.word	0x27e1a049
    1044:	00000000 	.word	0x00000000
    1048:	6e697270 	.word	0x6e697270
    104c:	00006b74 	.word	0x00006b74
	...
    1080:	872c0bde 	.word	0x872c0bde
    1084:	00000000 	.word	0x00000000
    1088:	6d676572 	.word	0x6d676572
    108c:	725f7061 	.word	0x725f7061
    1090:	00646165 	.word	0x00646165
	...

Disassembly of section __jump_table:

0000000000000000 <__jump_table>:
	...

Disassembly of section __verbose:

0000000000000000 <descriptor.39733>:
	...
  20:	0000047c 	.inst	0x0000047c ; undefined
	...

0000000000000040 <descriptor.39579>:
	...
  60:	000001c4 	.inst	0x000001c4 ; undefined
	...

0000000000000080 <descriptor.39542>:
	...
  a0:	00000140 	.inst	0x00000140 ; undefined
	...

00000000000000c0 <descriptor.39529>:
	...
  e0:	00000102 	.inst	0x00000102 ; undefined
	...

0000000000000100 <descriptor.39719>:
	...
 120:	00000452 	.inst	0x00000452 ; undefined
	...

0000000000000140 <descriptor.39562>:
	...
 160:	000001af 	.inst	0x000001af ; undefined
	...

0000000000000180 <descriptor.39566>:
	...
 1a0:	000001b4 	.inst	0x000001b4 ; undefined
	...

00000000000001c0 <descriptor.39759>:
	...
 1e0:	000004f3 	.inst	0x000004f3 ; undefined
	...

0000000000000200 <descriptor.39703>:
	...
 220:	000003fe 	.inst	0x000003fe ; undefined
	...

0000000000000240 <descriptor.39773>:
	...
 260:	0000054d 	.inst	0x0000054d ; undefined
	...

Disassembly of section .plt:

0000000000000340 <.plt>:
	...
